(dp0
S'wordtoix'
p1
(dp2
Vbagpipe
p3
I1920
sVfrolics
p4
I642
sVsuperman
p5
I2159
sVhats
p6
I1921
sVyellow
p7
I1
sVfour
p8
I2
sVprotest
p9
I1262
sVwoods
p10
I3
sVasian
p11
I1263
sVhanging
p12
I4
sVmarching
p13
I5
sVwhose
p14
I1264
sVfeeding
p15
I1923
sVpatches
p16
I1924
sVswan
p17
I1265
sVbike
p18
I644
sVunder
p19
I1926
sVteaching
p20
I1266
sVonstage
p21
I1267
sVcarried
p22
I2515
sVrescue
p23
I1268
sVblanket
p24
I645
sVhelmet
p25
I2193
sVcloseup
p26
I646
sVjack
p27
I1927
sVconfetti
p28
I1928
sVfireplace
p29
I1929
sVwooded
p30
I6
sVmotorcyclist
p31
I1931
sVwooden
p32
I7
sVwhist
p33
I648
sVheading
p34
I1269
sVclothes
p35
I1270
sVenjoy
p36
I1932
sVchew
p37
I649
sVbicycle
p38
I1933
sVmaneuver
p39
I2133
sVrailing
p40
I8
sVjapanese
p41
I1271
sVtires
p42
I9
sVsurrounding
p43
I1934
sVrusty
p44
I10
sVstreet
p45
I1935
sVcolourful
p46
I1273
sVmachines
p47
I650
sVshining
p48
I1936
sVblue
p49
I1937
sVcooking
p50
I75
sVsooners
p51
I12
sVfingers
p52
I13
sVlights
p53
I1275
sVabove
p54
I652
sVsideways
p55
I1503
sVnew
p56
I1276
sVnet
p57
I1277
sVhelmets
p58
I1278
sVkicked
p59
I1938
sVscreams
p60
I1279
sVfestive
p61
I653
sVwakeboard
p62
I1280
sVmen
p63
I1281
sVramps
p64
I1939
sVstudio
p65
I1940
sVpath
p66
I1941
sVstares
p67
I1942
sVcardboard
p68
I1282
sVdry
p69
I1283
sVkids
p70
I15
sVdaughter
p71
I654
sVluggage
p72
I1943
sVrests
p73
I1284
sVitems
p74
I655
sVelaborate
p75
I16
sVgymnast
p76
I952
sVjogging
p77
I1945
sVsmoke
p78
I656
sVmilitary
p79
I17
sVrafting
p80
I1285
sVclimber
p81
I18
sVgolden
p82
I19
sVstraw
p83
I1946
sVbackpacking
p84
I2273
sVstrap
p85
I1947
sVvisible
p86
I1948
sVjackets
p87
I1286
sVlandscape
p88
I1287
sVswings
p89
I1949
sVarmy
p90
I1288
sVsweater
p91
I657
sVwatering
p92
I1289
sVbarks
p93
I1290
sVarms
p94
I1291
sVmusic
p95
I20
sVcalm
p96
I1293
sVbundled
p97
I658
sVtype
p98
I1294
sVpaperwork
p99
I154
sVrelax
p100
I22
sVunderwear
p101
I1505
sVpierced
p102
I659
sVglass
p103
I23
sVwarm
p104
I1295
sVadult
p105
I1296
sVhole
p106
I24
sVhold
p107
I25
sVblocking
p108
I661
sVshoot
p109
I1953
sVroom
p110
I1297
sVtrots
p111
I1298
sVwork
p112
I662
sVrollerskating
p113
I2356
sVworn
p114
I663
sVobstacle
p115
I2357
sVfoliage
p116
I1300
sVcans
p117
I1387
sVsquirting
p118
I1301
sVwand
p119
I26
sVgive
p120
I1302
sVskateboard
p121
I1827
sVdolphin
p122
I1954
sVlaughs
p123
I1303
sVcaution
p124
I27
sVacrobatic
p125
I664
sVend
p126
I1955
sVtravel
p127
I28
sVsong
p128
I2242
sVslalom
p129
I1957
sVmachine
p130
I29
sVhow
p131
I30
sVhot
p132
I31
sVdrummer
p133
I1958
sVboats
p134
I665
sVgate
p135
I1959
sVbeach
p136
I666
sVpizza
p137
I667
sVpokes
p138
I1960
sVmouths
p139
I1961
sVmess
p140
I1962
sVladder
p141
I668
sVafter
p142
I669
sVstroller
p143
I1770
sVlab
p144
I670
sVjumping
p145
I1963
sVlay
p146
I671
sVsparkler
p147
I1964
sVlap
p148
I672
sVparallel
p149
I1965
sVheaddress
p150
I673
sVcolorfully
p151
I32
sVattempt
p152
I1307
sVthird
p153
I1308
sVspout
p154
I1966
sVdrinks
p155
I2098
sVdescends
p156
I1309
sVgreen
p157
I674
sVjungle
p158
I1968
sVambulance
p159
I675
sVfan
p160
I2246
sVathletes
p161
I1310
sVwind
p162
I33
sVwine
p163
I34
sVoffice
p164
I676
sVdeck
p165
I1311
sVover
p166
I1970
sVfacial
p167
I2504
sVticket
p168
I2247
sVplayhouse
p169
I35
sVforehead
p170
I2038
sVsoaking
p171
I1313
sVbackpack
p172
I36
sVwriting
p173
I1972
sVsprays
p174
I1314
sVcroquet
p175
I1973
sVlooks
p176
I2442
sVthem
p177
I678
sVcollide
p178
I679
sVbreak
p179
I680
sVband
p180
I681
sVthey
p181
I683
sVsilver
p182
I37
sVbank
p183
I684
sVbread
p184
I685
sVseveral
p185
I2039
sVrocky
p186
I686
sVrocks
p187
I687
sVdumps
p188
I38
sVeach
p189
I1974
sVmeal
p190
I307
sVbone
p191
I1316
sVlifted
p192
I689
sVkneels
p193
I690
sVtelescope
p194
I39
sVseries
p195
I40
sVtrain
p196
I1794
sVspider
p197
I41
sVbowls
p198
I42
sVgroup
p199
I1491
sVjuggling
p200
I1976
sVnavy
p201
I1317
sVlogo
p202
I693
sVflock
p203
I694
sVmotorized
p204
I695
sVenclosure
p205
I1318
sVsprints
p206
I696
sVtrench
p207
I2248
sVrv
p208
I43
sVdriving
p209
I1977
sVhaired
p210
I1978
sVcameras
p211
I697
sVhound
p212
I1603
sVlaid
p213
I1979
sVsliding
p214
I698
sVsplashed
p215
I1980
sVturning
p216
I1319
sVbarrier
p217
I699
sVtops
p218
I119
sVlittle
p219
I1511
sVfree
p220
I1982
sVascending
p221
I1320
sVpumpkins
p222
I44
sVformation
p223
I1983
sVevil
p224
I56
sVhoodie
p225
I1321
sVbacklit
p226
I1322
sVchecked
p227
I852
sVknit
p228
I46
sVbaseman
p229
I700
sVshaggy
p230
I1323
sVstarts
p231
I1324
sVatm
p232
I47
sVtrotting
p233
I2532
sVoutfits
p234
I1985
sVatv
p235
I48
sVmusicians
p236
I49
sVsoda
p237
I1986
sVleaps
p238
I458
sVonto
p239
I1987
sVbite
p240
I234
sVspeeds
p241
I50
sVstripe
p242
I1719
sVparticipates
p243
I1512
sVchased
p244
I1829
sVhoop
p245
I1326
sVplayfully
p246
I51
sVspinning
p247
I52
sVanother
p248
I701
sVthick
p249
I702
sVditch
p250
I1327
sVelectronic
p251
I703
sVhood
p252
I1328
sVbasketball
p253
I53
sVtop
p254
I1991
sVneck
p255
I1483
sVgirls
p256
I1329
sVelevator
p257
I704
sVtoo
p258
I1992
sVlegs
p259
I54
sVdogs
p260
I705
sVtoe
p261
I1993
sVurban
p262
I1994
sVceiling
p263
I1995
sVhappily
p264
I706
sVbouncing
p265
I1331
sVlunges
p266
I55
sVlower
p267
I2360
sVdigs
p268
I1333
sVankle
p269
I1997
sVboarding
p270
I424
sVdistance
p271
I1335
sVtarget
p272
I707
sVhike
p273
I708
sVtree
p274
I57
sVsecond
p275
I58
sVseated
p276
I709
sVshower
p277
I59
sVsilly
p278
I1336
sVfriend
p279
I855
sVtackled
p280
I711
sVbeard
p281
I1998
sVmini
p282
I1338
sVrunner
p283
I60
sVboston
p284
I61
sVpaddles
p285
I62
sVtalking
p286
I2001
sVshrubs
p287
I63
sVseen
p288
I1340
sVleafy
p289
I2002
sVgear
p290
I1831
sVconcrete
p291
I64
sVbleachers
p292
I65
sVsoaked
p293
I66
sVsnow
p294
I2003
sVracers
p295
I67
sVchest
p296
I1341
sVchess
p297
I1342
sVdoors
p298
I68
sVswims
p299
I712
sVrides
p300
I2004
sVrider
p301
I2005
sVquarterback
p302
I1343
sVcrossbones
p303
I69
sVthough
p304
I2006
sVobject
p305
I70
sVgrins
p306
I1344
sVmouth
p307
I71
sVjean
p308
I2045
sVsinger
p309
I72
sVcamp
p310
I73
sVnighttime
p311
I1345
sVdog
p312
I1346
sVpoints
p313
I1347
sVpointy
p314
I1348
sVdot
p315
I1349
sVsaying
p316
I74
sVboogie
p317
I11
sVpadded
p318
I76
sVattempts
p319
I1350
sVstepping
p320
I1351
sVparticipate
p321
I77
sVcapes
p322
I78
sVtouches
p323
I79
sVbusy
p324
I80
sVjust
p325
I1403
sVfolded
p326
I1352
sVbush
p327
I81
sVmoustache
p328
I2354
sVgoalie
p329
I714
sVwearing
p330
I1353
sVdo
p331
I715
sVcartwheels
p332
I83
sVcolorful
p333
I1354
sVrailings
p334
I717
sVstop
p335
I1355
sVtiled
p336
I1356
sVcushion
p337
I84
sVwedding
p338
I2013
sVsandy
p339
I1915
sVruns
p340
I718
sVbar
p341
I1358
sVcovering
p342
I719
sVfields
p343
I1360
sVboarder
p344
I86
sVlicking
p345
I2016
sVbay
p346
I1361
sVbag
p347
I1362
sVpiggy
p348
I88
sVcarrier
p349
I2519
sVears
p350
I1363
sVfair
p351
I89
sVobserves
p352
I720
sVfluffy
p353
I1364
sVpads
p354
I90
sVjerseys
p355
I2017
sVlots
p356
I91
sVaway
p357
I721
sVsail
p358
I1365
sVshirted
p359
I566
sVshaved
p360
I1366
sVartificial
p361
I1367
sVwetsuit
p362
I1368
sVmud
p363
I2018
sVmug
p364
I2019
sVscore
p365
I93
sVfinger
p366
I2020
sVpets
p367
I1369
sVpirate
p368
I94
sVskimpy
p369
I95
sVherding
p370
I2021
sVwears
p371
I1370
sVmetal
p372
I2007
sVwear
p373
I2023
sVwheelbarrow
p374
I96
sVpicking
p375
I1371
sVroller
p376
I97
sVkitchen
p377
I723
sVcop
p378
I724
sVcow
p379
I725
sVcountry
p380
I98
sVagainst
p381
I1373
sVparticipating
p382
I2024
sVplayers
p383
I2025
sVgames
p384
I2026
sVfaces
p385
I2027
sVski
p386
I2502
sS'#START#'
p387
I0
sVcanyon
p388
I100
sVyelling
p389
I1417
sVblonde
p390
I101
sVtraveling
p391
I2404
sVbathroom
p392
I2028
sVwatercraft
p393
I102
sVputs
p394
I1375
sVbikinis
p395
I2029
sVropes
p396
I2030
sVthree
p397
I1376
sVtiny
p398
I1377
sVquickly
p399
I2032
sVbeer
p400
I2033
sVmuch
p401
I103
sVstadium
p402
I104
sVcanopy
p403
I2482
sVkites
p404
I1728
sVlife
p405
I105
sVrelaxing
p406
I726
sVeastern
p407
I106
sVdroplets
p408
I727
sVworker
p409
I107
sVlift
p410
I640
sVchild
p411
I109
sVcatch
p412
I2034
sVglider
p413
I1925
sVtank
p414
I1380
sVreddish
p415
I1381
sVhangs
p416
I2304
sVteenager
p417
I2051
sVair
p418
I728
sVnear
p419
I1382
sVbalance
p420
I1383
sVleaves
p421
I1944
sVskirts
p422
I110
sVseven
p423
I1384
sVpyramid
p424
I2035
sVcanoeing
p425
I111
sVplayed
p426
I112
sVis
p427
I1385
sVit
p428
I1386
sVplayer
p429
I113
sVcone
p430
I729
sVin
p431
I1388
sVviolin
p432
I114
sVmouse
p433
I1389
sVcontaining
p434
I2037
sVbottles
p435
I1390
sVminiature
p436
I2257
sVperform
p437
I731
sVthings
p438
I115
sVmake
p439
I1391
sVwho
p440
I2468
sVbeside
p441
I1971
sVbelly
p442
I1392
sVbabies
p443
I116
sVplates
p444
I732
sVshoveling
p445
I1393
sVsidelines
p446
I1394
sVbunny
p447
I733
sVeuropean
p448
I118
sVwheel
p449
I734
sVbearded
p450
I1395
sVpeaks
p451
I2040
sVhang
p452
I735
sVrain
p453
I736
sVhand
p454
I737
sVphotographers
p455
I120
sVwaterfall
p456
I1396
sVdark
p457
I1722
sVkid
p458
I1397
sVbutter
p459
I1398
sVromp
p460
I1399
sVsmokes
p461
I1400
sVocean
p462
I2043
sVpractices
p463
I1401
sVmother
p464
I2044
sVthe
p465
I738
sVflops
p466
I713
sVmusical
p467
I739
sVleft
p468
I1402
sVsnowman
p469
I2046
sVsticking
p470
I2258
sVsleeps
p471
I121
sVathletic
p472
I740
sVphoto
p473
I741
sVsporting
p474
I1404
sVgoggles
p475
I742
sVthumbs
p476
I2048
sVhuman
p477
I1405
sVtattooed
p478
I1406
sVlasso
p479
I122
sVhills
p480
I744
sVphotographer
p481
I745
sVhilly
p482
I746
sVhay
p483
I123
sVspread
p484
I747
sVboard
p485
I748
sVhas
p486
I124
sVhat
p487
I125
sVphotographed
p488
I749
sVturquoise
p489
I2052
sVcasting
p490
I2053
sVposed
p491
I126
sVcaps
p492
I750
sVboxes
p493
I751
sVboxer
p494
I752
sVdescending
p495
I2054
sVbackground
p496
I1407
sVforested
p497
I1408
sVcape
p498
I753
sVshadow
p499
I127
sVposes
p500
I743
sVapart
p501
I2055
sVshoulder
p502
I1409
sVmelting
p503
I2056
sVperforming
p504
I1410
sVpavement
p505
I128
sVsteps
p506
I129
sVofficer
p507
I2057
sVnight
p508
I754
sVsecurity
p509
I755
sVsurf
p510
I2161
sVright
p511
I130
sVold
p512
I131
sVcreek
p513
I132
sVcrowd
p514
I133
sVpeople
p515
I134
sVcrown
p516
I135
sVdead
p517
I771
sVbillboard
p518
I136
sVbeads
p519
I2014
sVfor
p520
I137
sVbottom
p521
I138
sVpurple
p522
I756
sVice
p523
I2059
sVicy
p524
I2060
sVasking
p525
I757
sVskateboarder
p526
I1415
sVchristmas
p527
I2061
sVshakes
p528
I139
sVcorn
p529
I2063
sVpose
p530
I758
sVstarring
p531
I795
sVscarves
p532
I2105
sVpost
p533
I759
sVdalmatian
p534
I2064
sVtrophy
p535
I760
sVdunking
p536
I1416
sVbenches
p537
I141
sVcowboy
p538
I2065
sVnewspapers
p539
I761
sVo
p540
I142
sVmagazine
p541
I1418
sVhorizon
p542
I762
sVslightly
p543
I143
sVhospital
p544
I1950
sVbath
p545
I2067
sVraised
p546
I825
sVtinkerbell
p547
I1419
sVfloat
p548
I763
sVbound
p549
I764
sVbalances
p550
I765
sVdown
p551
I835
sVlies
p552
I1420
sVmagazines
p553
I145
sVraises
p554
I146
sVcarving
p555
I1421
sVpetting
p556
I2058
sVshoots
p557
I147
sVrounds
p558
I2068
sVparade
p559
I1422
sVfabric
p560
I148
sVwaits
p561
I149
sVflying
p562
I844
sVsunlight
p563
I2069
sVfight
p564
I766
sVstuck
p565
I2070
sVbeen
p566
I2031
sVway
p567
I767
sVoverhead
p568
I1292
sVwas
p569
I768
sVwar
p570
I769
sVoverhang
p571
I1642
sVhappy
p572
I150
sVhead
p573
I2071
sVmedium
p574
I2072
sVsteers
p575
I2073
sVsnowy
p576
I770
sVbatman
p577
I1424
sVfireworks
p578
I1425
sVlanding
p579
I1426
sVhear
p580
I2074
sVelderly
p581
I1411
sVslope
p582
I2165
sVlimousine
p583
I1951
sVinside
p584
I151
sVattached
p585
I1428
sVbouncy
p586
I470
sVlays
p587
I152
sVbrightly
p588
I2075
sVsticks
p589
I1430
sVclassic
p590
I1431
sVtoss
p591
I1432
sVtournament
p592
I153
sVmuscular
p593
I772
sVfashioned
p594
I1434
sVfemales
p595
I21
sVship
p596
I898
sVdimly
p597
I773
sVoutstretched
p598
I2077
sVfloor
p599
I155
sVglacier
p600
I156
sVleafless
p601
I1436
sVtossing
p602
I905
sVhanded
p603
I1438
sVsetting
p604
I2079
sVholding
p605
I774
sVdigital
p606
I1439
sVtest
p607
I775
sVtie
p608
I2081
sVribbons
p609
I1440
sVroll
p610
I157
sVgreenery
p611
I158
sVpractice
p612
I2448
sVsling
p613
I1441
sVfairground
p614
I776
sVcenter
p615
I1878
sVrolling
p616
I159
sVyounger
p617
I2084
sVmarathon
p618
I2158
sVpotato
p619
I1442
sVtogether
p620
I777
sVjacket
p621
I1443
sVcarts
p622
I1413
sVtime
p623
I160
sVpush
p624
I161
sVbanners
p625
I162
sVigloo
p626
I778
sVgown
p627
I163
sVcoach
p628
I2085
sVfurry
p629
I2050
sVchain
p630
I164
sVdance
p631
I779
sVskis
p632
I1445
sVrod
p633
I2086
sVbranches
p634
I2119
sVhorseback
p635
I780
sVleads
p636
I2087
sVcrocodile
p637
I165
sVskate
p638
I166
sVskiing
p639
I167
sVtrashcan
p640
I168
sVchair
p641
I169
sVmidst
p642
I170
sVrow
p643
I2088
sVballet
p644
I962
sVfather
p645
I1447
sVbicycles
p646
I171
sVbicycler
p647
I172
sVride
p648
I1778
sVbrown
p649
I782
sVprotective
p650
I783
sVstring
p651
I1448
sVdim
p652
I1449
sVclouds
p653
I2090
sVtricycle
p654
I173
sVturns
p655
I784
sVposts
p656
I2092
sVbrother
p657
I2093
sVcloudy
p658
I2094
sVtravels
p659
I998
sVitem
p660
I1451
sVsubway
p661
I174
sVteal
p662
I175
sVteam
p663
I176
sVsidewalk
p664
I786
sVround
p665
I1452
sVgreenhouse
p666
I569
sVupper
p667
I787
sVsays
p668
I2095
sVmeadow
p669
I177
sVtrails
p670
I178
sVsign
p671
I179
sVkhaki
p672
I2062
sVshirts
p673
I180
sVeating
p674
I1453
sVport
p675
I2097
sVparachuting
p676
I181
sVplaypen
p677
I182
sVheadset
p678
I183
sVappear
p679
I788
sVchurch
p680
I2506
sVuniform
p681
I789
sVcurrent
p682
I184
sVgoes
p683
I2100
sVfalling
p684
I185
sVcrashing
p685
I186
sVsweaters
p686
I1046
sVfilled
p687
I1455
sVhairy
p688
I2101
sVtrampoline
p689
I140
sVexplosion
p690
I790
sVclimbs
p691
I187
sVmakeup
p692
I1456
sVfrench
p693
I1457
sVcostumes
p694
I1748
sVwater
p695
I2102
sVbaseball
p696
I2103
sValone
p697
I188
sValong
p698
I189
sVhoops
p699
I2344
sVappears
p700
I791
sVwait
p701
I1458
sVbox
p702
I1459
sVpassengers
p703
I190
sVincoming
p704
I792
sVflames
p705
I793
sVdusty
p706
I191
sVbow
p707
I1461
sVboa
p708
I1463
sVpillow
p709
I794
sVmassage
p710
I1464
sVteenage
p711
I1465
sVlove
p712
I1077
sVhiking
p713
I796
sVmarked
p714
I797
sVuphill
p715
I798
sVsnowboard
p716
I799
sVseashore
p717
I800
sVfake
p718
I192
sVmarker
p719
I801
sVmarket
p720
I802
sVworking
p721
I193
sVlockers
p722
I1467
sVwicker
p723
I194
sVsports
p724
I2106
sVhandles
p725
I2107
sVwood
p726
I2166
sVsoftball
p727
I2278
sVangels
p728
I803
sVsharing
p729
I1468
sVclub
p730
I804
sVclaus
p731
I195
sVchocolate
p732
I2108
sVeverywhere
p733
I196
sVriders
p734
I197
sVmascot
p735
I198
sVfly
p736
I1469
sVskaters
p737
I806
sVcar
p738
I807
sVcap
p739
I808
sVcat
p740
I809
sVcan
p741
I810
sVfollowing
p742
I199
sVmaking
p743
I1470
sVbites
p744
I1471
sVbreeds
p745
I811
sVheart
p746
I590
sVperformer
p747
I2111
sVgrassy
p748
I2417
sVfigure
p749
I2112
sVpauses
p750
I813
sVparachute
p751
I200
sVchin
p752
I814
sVhides
p753
I201
sVpond
p754
I2271
sVclothing
p755
I815
sVlistens
p756
I202
sVpink
p757
I1473
sVwinter
p758
I203
sVsailboat
p759
I2113
sVnecklaces
p760
I1474
sVdinner
p761
I2066
sVpine
p762
I1475
sVlounge
p763
I2443
sVsword
p764
I1147
sVelephant
p765
I204
sVtile
p766
I1478
sVspeaks
p767
I2114
sVpathway
p768
I1479
sVmat
p769
I1480
sVstaircase
p770
I817
sVdive
p771
I818
sVspot
p772
I205
sVbirthday
p773
I2116
sVwakeboarder
p774
I2117
sVfloral
p775
I2118
sVheadscarf
p776
I950
sVlifting
p777
I819
sVman
p778
I1482
sVsurfing
p779
I206
sVnatural
p780
I207
sVnoses
p781
I821
sVliquid
p782
I2120
sVcandles
p783
I822
sVwheelchair
p784
I208
sVdarkened
p785
I209
sVso
p786
I1174
sVafrican
p787
I1484
sVbasket
p788
I1176
sVtall
p789
I1485
sVpulled
p790
I211
sVtalk
p791
I1179
sVcute
p792
I1487
sVshoes
p793
I1488
sVkayaks
p794
I212
sVhaircut
p795
I824
sVflips
p796
I213
sVcourse
p797
I214
sVbucking
p798
I215
sVpitch
p799
I1490
sVcold
p800
I826
sVstill
p801
I827
sVbirds
p802
I828
sVblocked
p803
I2121
sVyawning
p804
I216
sVmonitor
p805
I1492
sVcurly
p806
I829
sVaccordion
p807
I217
sVinteresting
p808
I1493
sVcheerleaders
p809
I2123
sVplatform
p810
I2124
sVwindow
p811
I830
sVoutstreached
p812
I805
sVswans
p813
I2125
sVapron
p814
I218
sVspeeding
p815
I2275
sVscaling
p816
I831
sVtouching
p817
I1494
sVtails
p818
I832
sVdrilling
p819
I219
sVinnertube
p820
I1097
sVnot
p821
I833
sVson
p822
I144
sVhall
p823
I834
sVrunners
p824
I220
sVwagon
p825
I2127
sVscooters
p826
I1304
sVhorses
p827
I2259
sVfisherman
p828
I221
sVbowling
p829
I222
sVhardhat
p830
I1498
sVcliffs
p831
I836
sVsquare
p832
I223
sVretrieve
p833
I224
sVcatching
p834
I2129
sVgirl
p835
I1499
sVamusement
p836
I837
sVemerges
p837
I1258
sVshown
p838
I838
sVcontainer
p839
I225
sVspace
p840
I839
sVtulips
p841
I2130
sVoklahoma
p842
I2131
sVdownhill
p843
I1752
sVlooking
p844
I840
sVpiano
p845
I2473
sVshows
p846
I841
sVclover
p847
I823
sVhula
p848
I2134
sVmonster
p849
I1502
sVcars
p850
I842
sVcart
p851
I14
sVrows
p852
I2379
sVbumpy
p853
I226
sVheadband
p854
I1504
sVuniformed
p855
I2135
sVcard
p856
I843
sVtraining
p857
I227
sVsilhouetted
p858
I228
sVcarnival
p859
I2109
sVwaiter
p860
I1506
sVheadphones
p861
I1507
sVmotion
p862
I2136
sVturn
p863
I2137
sVplace
p864
I2138
sVswing
p865
I2139
sVview
p866
I2140
sVfirst
p867
I1508
sVpelican
p868
I2141
sVtennis
p869
I1423
sVstriking
p870
I845
sVcoming
p871
I1646
sVmountainside
p872
I846
sVflipping
p873
I847
sVone
p874
I229
sVsoaring
p875
I2143
sVfetches
p876
I2144
sVlong
p877
I1161
sVrink
p878
I848
sVcarry
p879
I1510
sVchubby
p880
I230
sVpotted
p881
I231
sVopen
p882
I232
sVsheep
p883
I850
sVcity
p884
I233
sVsheer
p885
I851
sVsheet
p886
I45
sVmurky
p887
I1325
sVcaught
p888
I853
sVbreed
p889
I854
sVplastic
p890
I2146
sVreturns
p891
I2147
sV2
p892
I1330
sVstuffed
p893
I235
sVwhite
p894
I2149
sVstructures
p895
I236
sVpuddle
p896
I1849
sVspeaking
p897
I1337
sVgives
p898
I2150
sVeyes
p899
I1513
sVhug
p900
I2151
sVhomemade
p901
I1754
sVmostly
p902
I856
sVthat
p903
I941
sVfloppy
p904
I237
sVhut
p905
I2152
sVflowery
p906
I857
sVeyed
p907
I1514
sVflowers
p908
I858
sVbelow
p909
I2529
sVwide
p910
I2153
sVsailing
p911
I1359
sVrival
p912
I238
sVkarate
p913
I859
sVcoats
p914
I239
sVapples
p915
I860
sVcards
p916
I2154
sVcollege
p917
I2170
sVscuba
p918
I240
sVtractor
p919
I1516
sVand
p920
I99
sVgathering
p921
I1374
sVparking
p922
I2171
sVturned
p923
I241
sValley
p924
I242
sVeats
p925
I1649
sVwinding
p926
I1517
sVburied
p927
I243
sVdistorted
p928
I861
sVsells
p929
I2157
sVbatting
p930
I639
sVsat
p931
I244
sVhooded
p932
I1518
sVsilhouette
p933
I2160
sVsix
p934
I2432
sVequipment
p935
I862
sVtake
p936
I245
sVperformance
p937
I1519
sVhandbag
p938
I1837
sVbutterfly
p939
I246
sVhanding
p940
I247
sVskinned
p941
I1520
sVmultiple
p942
I2162
sVequestrian
p943
I2163
sVpail
p944
I1412
sVopposite
p945
I248
sVtrack
p946
I1414
sVenter
p947
I1969
sVfalls
p948
I2164
sVsheets
p949
I1521
sVpair
p950
I1522
sVknee
p951
I249
sVtugging
p952
I1523
sVlawn
p953
I250
sVcloth
p954
I2383
sVbicyclist
p955
I2172
sVdrive
p956
I251
sVsunset
p957
I863
sVpattern
p958
I1853
sVprofessional
p959
I865
sVshop
p960
I1524
sVwalking
p961
I252
sVshot
p962
I1525
sVshow
p963
I1526
sVgerman
p964
I866
sVbright
p965
I253
sVshoe
p966
I1527
sVcorner
p967
I1528
sVcrane
p968
I2384
sVground
p969
I867
sVsnack
p970
I868
sVstair
p971
I869
sVmiami
p972
I2505
sVbehind
p973
I461
sVeither
p974
I1582
sVonly
p975
I870
sVgoing
p976
I254
sVblack
p977
I1529
sVhockey
p978
I255
sVrobe
p979
I256
sVpumpkin
p980
I871
sVbridge
p981
I1999
sVget
p982
I1531
sVbegging
p983
I2167
sVwheelie
p984
I257
sVspraying
p985
I1532
sVnearly
p986
I1533
sVchews
p987
I1539
sVreading
p988
I1535
sVartist
p989
I1496
sVleather
p990
I872
sVchecks
p991
I1540
sVnaked
p992
I2168
sVskyline
p993
I258
sVclowns
p994
I2169
sVsnowsuit
p995
I259
sVpants
p996
I2478
sVwhere
p997
I260
sVhikers
p998
I1427
sVpicnic
p999
I2214
sVconcert
p1000
I873
sVmaneuvers
p1001
I1372
sVbounds
p1002
I1429
sVasleep
p1003
I874
sVseal
p1004
I1537
sVsport
p1005
I875
sVdives
p1006
I261
sVdiver
p1007
I262
sVparent
p1008
I1541
sVcamping
p1009
I1538
sVtackling
p1010
I876
sVjumped
p1011
I263
sV3
p1012
I877
sVskyscraper
p1013
I878
sVbetween
p1014
I879
sVwithout
p1015
I2201
sVnavigates
p1016
I264
sVenjoys
p1017
I1534
sVbefore
p1018
I1312
sVacross
p1019
I1272
sVjumper
p1020
I265
sVdried
p1021
I2096
sVcheckered
p1022
I266
sVvertical
p1023
I267
sVscreen
p1024
I268
sVguitar
p1025
I2174
sVtub
p1026
I1542
sVcome
p1027
I2175
sVtug
p1028
I1543
sVmans
p1029
I269
sVrugby
p1030
I1544
sVmany
p1031
I270
sVs
p1032
I271
sVroof
p1033
I1299
sVwheels
p1034
I880
sVexpression
p1035
I272
sVcomes
p1036
I881
sVnearby
p1037
I882
sVamong
p1038
I1546
sVstretches
p1039
I1547
sVfencers
p1040
I883
sVcolor
p1041
I2176
sVpot
p1042
I2177
sVjeans
p1043
I884
sVpop
p1044
I2178
sVpole
p1045
I2179
sVstretched
p1046
I1548
sVpacifier
p1047
I1549
sVpolo
p1048
I2180
sVgeese
p1049
I1760
sVpigtails
p1050
I885
sVboat
p1051
I273
sVlabrador
p1052
I490
sVarts
p1053
I1550
sVcycling
p1054
I887
sVteddy
p1055
I274
sVstretch
p1056
I275
sVtropical
p1057
I888
sVreflective
p1058
I276
sVcords
p1059
I2183
sVdirection
p1060
I2184
sVshopping
p1061
I1552
sVbrush
p1062
I2523
sVtiger
p1063
I2185
sVphotos
p1064
I277
sVcovers
p1065
I1433
sVrubs
p1066
I889
sVfoggy
p1067
I890
sVbmx
p1068
I1553
sVskiers
p1069
I891
sVparasail
p1070
I278
sVcase
p1071
I348
sVthese
p1072
I892
sVtrick
p1073
I893
sVcast
p1074
I2187
sVcanoes
p1075
I279
sVnewspaper
p1076
I280
sVmound
p1077
I636
sVcanal
p1078
I2378
sVvest
p1079
I2189
sVcanoe
p1080
I281
sVaqua
p1081
I1202
sVinflatable
p1082
I894
sVpurse
p1083
I282
sVcoffee
p1084
I1555
sVsleeping
p1085
I1556
sVcouples
p1086
I2191
sVmiddle
p1087
I1557
sVsomeone
p1088
I2192
sVembrace
p1089
I895
sVheels
p1090
I896
sVwaterway
p1091
I897
sVfloating
p1092
I1435
sVbags
p1093
I1558
sVdifferent
p1094
I1559
sVdragging
p1095
I1764
sVpaw
p1096
I1560
sVwoodland
p1097
I1561
sVmulticolor
p1098
I1545
sVsame
p1099
I1562
sVbows
p1100
I2195
sVpad
p1101
I1563
sVgreyhounds
p1102
I1564
sVpan
p1103
I1565
sVfinish
p1104
I899
sVbarefoot
p1105
I2196
sVfoam
p1106
I900
sVseagulls
p1107
I1667
sVdrives
p1108
I2198
sVcheers
p1109
I284
sVrunning
p1110
I1567
sVfruit
p1111
I901
sVtwo
p1112
I1636
sVadvertisement
p1113
I286
sVclimbing
p1114
I1568
sVthrown
p1115
I2292
sVmohawk
p1116
I287
sVdrain
p1117
I1569
sVtheater
p1118
I902
sVbagpipes
p1119
I903
sVno
p1120
I2078
sVwalls
p1121
I1656
sVbicyclists
p1122
I1570
sVbottle
p1123
I1571
sVpitbull
p1124
I904
sVsummer
p1125
I289
sVsprayed
p1126
I290
sVbeing
p1127
I291
sVclings
p1128
I1437
sVdancers
p1129
I906
sVneon
p1130
I907
sVrest
p1131
I292
sVgated
p1132
I1574
sVtouch
p1133
I909
sVspeed
p1134
I910
sVkneeling
p1135
I2204
sVblow
p1136
I2205
sVfiring
p1137
I2375
sVsnowboarder
p1138
I911
sVsunshade
p1139
I912
sVbeagle
p1140
I1575
sVinstrument
p1141
I294
sVpile
p1142
I1576
sV4
p1143
I1712
sVhind
p1144
I2206
sVskies
p1145
I295
sVskier
p1146
I296
sVswim
p1147
I913
sVaround
p1148
I297
sVread
p1149
I914
sVpapers
p1150
I2080
sVgestures
p1151
I1069
sVchainsaw
p1152
I1577
sVoverlooks
p1153
I915
sVtraffic
p1154
I299
sVlistening
p1155
I916
sVstunt
p1156
I917
sVrailroad
p1157
I1579
sVlady
p1158
I918
sVrear
p1159
I919
sVfurniture
p1160
I2207
sVtowel
p1161
I2208
sVclad
p1162
I301
sVbracelet
p1163
I2209
sVfacing
p1164
I1580
sVaudience
p1165
I1581
sVlaughing
p1166
I342
sVseating
p1167
I302
sVdoll
p1168
I1583
sVmoving
p1169
I2359
sVcompetition
p1170
I2210
sVdiving
p1171
I303
sVmatching
p1172
I1584
sVstrewn
p1173
I108
sVtube
p1174
I304
sVstops
p1175
I2212
sVchickens
p1176
I2362
sVsledding
p1177
I886
sVknife
p1178
I1585
sVfootball
p1179
I2083
sVbusiness
p1180
I921
sVraincoat
p1181
I1586
sVsurfboard
p1182
I2310
sVunusual
p1183
I1587
sVbroken
p1184
I1588
sVincline
p1185
I2424
sVsniffs
p1186
I922
sVdrums
p1187
I1589
sVteammate
p1188
I2181
sVthrow
p1189
I923
sVon
p1190
I518
sVstone
p1191
I306
sVmuzzle
p1192
I1922
sVjeep
p1193
I2215
sVpaints
p1194
I924
sVinsect
p1195
I2393
sVside
p1196
I1315
sVstand
p1197
I2217
sVact
p1198
I308
sVor
p1199
I2218
sVroad
p1200
I1591
sVladies
p1201
I2219
sVlands
p1202
I1592
sVburning
p1203
I309
sVinstruments
p1204
I2220
sVimage
p1205
I310
sVgarb
p1206
I2221
sVlegged
p1207
I311
sVprepares
p1208
I1766
sVharness
p1209
I1593
sVhomeless
p1210
I1817
sVstrip
p1211
I1594
sVwade
p1212
I313
sVlogs
p1213
I691
sVstare
p1214
I925
sVfast
p1215
I2381
sVlog
p1216
I926
sVprepare
p1217
I927
sVarea
p1218
I928
sVthere
p1219
I2222
sVblurred
p1220
I1515
sVdesert
p1221
I1767
sVstart
p1222
I929
sVcats
p1223
I930
sVlow
p1224
I931
sVstars
p1225
I559
sVslopes
p1226
I316
sVvalley
p1227
I2223
sVbubble
p1228
I317
sVnose
p1229
I1746
sVtreat
p1230
I1205
sVgliding
p1231
I318
sVpitcher
p1232
I933
sVtripod
p1233
I1596
sVgymnasium
p1234
I1975
sVsled
p1235
I692
sVwalkway
p1236
I1597
sVtrying
p1237
I934
sVwith
p1238
I319
sVpull
p1239
I320
sVstrollers
p1240
I935
sVshirtless
p1241
I2211
sVbucket
p1242
I936
sVpeeking
p1243
I1598
sVdirty
p1244
I321
sVgrass
p1245
I2225
sVtutus
p1246
I937
sVwrestlers
p1247
I938
sVtoilet
p1248
I2226
sVrapids
p1249
I1599
sVdeer
p1250
I1600
sVwatches
p1251
I322
sVan
p1252
I323
sVas
p1253
I324
sVat
p1254
I325
sVwalks
p1255
I326
sVwatched
p1256
I327
sVskateboarders
p1257
I939
sVcream
p1258
I328
sVcollie
p1259
I329
sVbackstroke
p1260
I940
sVswords
p1261
I2227
sVredheaded
p1262
I2122
sVrubber
p1263
I2228
sVtight
p1264
I330
sVsummit
p1265
I496
sV5
p1266
I2229
sVyou
p1267
I942
sVpuppy
p1268
I332
sVmotorcyclists
p1269
I333
sVstudents
p1270
I1606
sVteeth
p1271
I1444
sVmidair
p1272
I2232
sVwaving
p1273
I334
sVpeak
p1274
I943
sVtackle
p1275
I1607
sVdecorated
p1276
I1608
sVpool
p1277
I944
sVbuilding
p1278
I945
sVcasts
p1279
I1609
sVtricks
p1280
I335
sVgroom
p1281
I336
sVmask
p1282
I337
sVdyed
p1283
I338
sVhello
p1284
I339
sVembracing
p1285
I946
sVhusky
p1286
I1610
sVstarting
p1287
I1611
sVstrings
p1288
I947
sVgrowling
p1289
I1612
sVall
p1290
I643
sVmotocross
p1291
I340
sVskeleton
p1292
I948
sVpointing
p1293
I949
sVsuburban
p1294
I1613
sVdollar
p1295
I1614
sVdisc
p1296
I647
sVtalks
p1297
I1615
sVfollow
p1298
I2237
sVdisk
p1299
I2238
sVreligious
p1300
I651
sVchildren
p1301
I1616
sVcarpet
p1302
I951
sVapartment
p1303
I2239
sVtv
p1304
I341
sVlining
p1305
I2240
sVhandrail
p1306
I2036
sVto
p1307
I343
sVtail
p1308
I344
sVchewing
p1309
I345
sVsmile
p1310
I346
sVenjoying
p1311
I1617
sVwoman
p1312
I2241
sVsitting
p1313
I1956
sVvery
p1314
I954
sVgrinds
p1315
I2244
sVrobes
p1316
I955
sVfat
p1317
I2245
sVbalancing
p1318
I956
sVfall
p1319
I1618
sVbubbles
p1320
I677
sVsquirted
p1321
I1619
sVlaying
p1322
I349
sVlarge
p1323
I350
sVspiderman
p1324
I2186
sVsand
p1325
I351
sVsmall
p1326
I352
sVneighborhood
p1327
I1620
sVfence
p1328
I957
sVcrashes
p1329
I2115
sVstreets
p1330
I958
sVgrabs
p1331
I1621
sVtee
p1332
I2249
sVpast
p1333
I353
sVpass
p1334
I354
sVribbon
p1335
I1622
sVcrouched
p1336
I1666
sVwhat
p1337
I2250
sVtussle
p1338
I959
sVsun
p1339
I2251
sVdribbling
p1340
I960
sVstool
p1341
I1623
sVmilk
p1342
I1446
sVsuv
p1343
I2252
sVunicycle
p1344
I961
sVracing
p1345
I2253
sVpublic
p1346
I1624
sVtattoos
p1347
I1625
sVfull
p1348
I355
sVtags
p1349
I2254
sVleaping
p1350
I2022
sVsurfer
p1351
I1626
sVtracks
p1352
I963
sVoperating
p1353
I1627
sVtrunk
p1354
I964
sVdirections
p1355
I2255
sVobserving
p1356
I2256
sVshops
p1357
I2188
sVarena
p1358
I965
sVcolored
p1359
I966
sVahead
p1360
I967
sVstretching
p1361
I1629
sVstorefront
p1362
I1630
sVsoldier
p1363
I968
sVairport
p1364
I1631
sVadvertising
p1365
I969
sVpick
p1366
I356
sVaction
p1367
I357
sVnarrow
p1368
I1632
sVsplashes
p1369
I1984
sVtrainer
p1370
I970
sVfollowed
p1371
I358
sVfamily
p1372
I971
sVclapping
p1373
I1633
sVindoors
p1374
I359
sVtoys
p1375
I972
sVviz
p1376
I360
sVpulls
p1377
I361
sVdachshund
p1378
I1634
sVeye
p1379
I1635
sVtakes
p1380
I973
sVridding
p1381
I362
sVpoodle
p1382
I363
sVsplash
p1383
I1637
sVpitching
p1384
I364
sV6
p1385
I365
sVtaken
p1386
I974
sVraft
p1387
I1638
sVrubbing
p1388
I1554
sVmore
p1389
I366
sVteen
p1390
I367
sVflat
p1391
I2260
sVdoor
p1392
I368
sVgrabbing
p1393
I2261
sVbatsman
p1394
I369
sVpairs
p1395
I2262
sVtelephone
p1396
I2190
sVflag
p1397
I2263
sVgentleman
p1398
I722
sVstick
p1399
I2264
sVtown
p1400
I1640
sVsleeveless
p1401
I2265
sVpolicemen
p1402
I2266
sVmall
p1403
I371
sVwrestler
p1404
I2267
sVwrestles
p1405
I2268
sVseagull
p1406
I2104
sVmale
p1407
I372
sVmarble
p1408
I1641
sVbeautiful
p1409
I373
sVpony
p1410
I2269
sVchallenging
p1411
I2270
sVpushes
p1412
I975
sVof
p1413
I2216
sVcampsite
p1414
I374
sVshare
p1415
I1643
sVautumn
p1416
I375
sVpushed
p1417
I976
sVnumbers
p1418
I1644
sVcows
p1419
I977
sVsharp
p1420
I1645
sVairplane
p1421
I816
sVdress
p1422
I376
sVhamburgers
p1423
I978
sVhuge
p1424
I377
sVcourt
p1425
I2272
sVgoal
p1426
I820
sVbreaking
p1427
I2274
sVhugs
p1428
I378
sVgoat
p1429
I2276
sVcreature
p1430
I379
sVplant
p1431
I380
sVheadfirst
p1432
I979
sVcountryside
p1433
I381
sVtries
p1434
I980
sVplane
p1435
I382
sVlighting
p1436
I2277
sVwaves
p1437
I383
sVbackyard
p1438
I384
sVhorizontal
p1439
I981
sVhuddled
p1440
I1774
sVplank
p1441
I385
sVa
p1442
I982
sVshort
p1443
I2279
sVcrowded
p1444
I1647
sVcoat
p1445
I1648
sVtwisting
p1446
I2156
sVracetrack
p1447
I983
sVvolleyball
p1448
I386
sVshore
p1449
I2280
sVchopsticks
p1450
I984
sVshade
p1451
I2281
sVinline
p1452
I985
sVplaying
p1453
I1650
sVpatio
p1454
I387
sVinfant
p1455
I1651
sVhelp
p1456
I986
sVhandlebars
p1457
I2282
sVbowl
p1458
I2194
sVcyclists
p1459
I987
sVcross
p1460
I2489
sVheld
p1461
I988
sVpaper
p1462
I388
sVthrough
p1463
I1652
sVsigns
p1464
I389
sVsmiling
p1465
I390
sVits
p1466
I391
sVstyle
p1467
I2283
sVlicks
p1468
I392
sVcarpeted
p1469
I989
sVresort
p1470
I2284
sVsoccer
p1471
I2285
sVcrawls
p1472
I1653
sVphone
p1473
I1952
sVgood
p1474
I1654
sVsucking
p1475
I2286
sVdusk
p1476
I601
sVfood
p1477
I990
sVmales
p1478
I1655
sVsnowball
p1479
I394
sVweeds
p1480
I395
sVfoot
p1481
I908
sVninja
p1482
I991
sVbigger
p1483
I2287
sVhuddle
p1484
I1657
sVkayaking
p1485
I992
sVswimsuit
p1486
I396
sVstopped
p1487
I993
sVsnowboarders
p1488
I2288
sVfairy
p1489
I994
sVheavy
p1490
I995
sVbrunette
p1491
I397
sVbends
p1492
I398
sVhouse
p1493
I1658
sVfish
p1494
I1659
sVhard
p1495
I1660
sVgun
p1496
I2289
sVextended
p1497
I1566
sVfist
p1498
I1661
sVbeyond
p1499
I996
sVbackpacks
p1500
I1662
sVevent
p1501
I997
sVreally
p1502
I399
sVbikers
p1503
I1450
sVflower
p1504
I1663
sVsurrounded
p1505
I999
sVsafety
p1506
I1000
sVhill
p1507
I2290
sVprint
p1508
I1664
sVhighway
p1509
I400
sVforeground
p1510
I1665
sVdrink
p1511
I602
sVguitars
p1512
I785
sVdirt
p1513
I1002
sVdriver
p1514
I2197
sVgreyhound
p1515
I1378
sVdune
p1516
I1003
sVbulls
p1517
I1668
sVhouses
p1518
I1004
sVcrouches
p1519
I1669
sVbase
p1520
I1005
sVmembers
p1521
I1670
sVput
p1522
I1006
sVbeginning
p1523
I1671
sVguy
p1524
I2291
sVbushes
p1525
I1305
sVdriven
p1526
I2199
sVowners
p1527
I402
sVrecord
p1528
I2528
sVrollerblader
p1529
I2293
sVrollerblades
p1530
I2294
sVcheering
p1531
I1007
sVamerican
p1532
I1008
sVsnowbank
p1533
I285
sVdribbles
p1534
I1672
sVcircuit
p1535
I2295
sVsnowboarding
p1536
I2296
sVfallen
p1537
I2297
sVthrows
p1538
I2298
sVstatue
p1539
I2200
sVjogs
p1540
I1673
sVnumber
p1541
I403
sVfancy
p1542
I2299
sVfeet
p1543
I2300
sVgazes
p1544
I404
sVairborne
p1545
I1012
sVhelicopter
p1546
I2182
sVcups
p1547
I1674
sVrail
p1548
I1981
sVpasses
p1549
I2301
sVhorse
p1550
I1011
sVheads
p1551
I405
sVjet
p1552
I406
sVleading
p1553
I2302
sVinterviews
p1554
I1009
sVrails
p1555
I1010
sVpaint
p1556
I1675
sVleash
p1557
I1676
sVstation
p1558
I1013
sVstorm
p1559
I1016
sVoutcropping
p1560
I2306
sVstore
p1561
I2307
sVfloaties
p1562
I407
sVsquirts
p1563
I1014
sVselling
p1564
I1015
sVwarmly
p1565
I408
sVhotel
p1566
I2308
sVpark
p1567
I1678
sVpart
p1568
I1679
sVmural
p1569
I1779
sVstairs
p1570
I409
sVuncut
p1571
I2309
sVobama
p1572
I410
sVleotard
p1573
I1017
sVgrocery
p1574
I1018
sVgrey
p1575
I1019
sVyouth
p1576
I1680
sVbride
p1577
I1020
sVstall
p1578
I2311
sVtricycles
p1579
I1681
sVtoward
p1580
I1021
sVbooth
p1581
I1117
sVmickey
p1582
I1022
sVuniforms
p1583
I2314
sValongside
p1584
I1023
sVcollars
p1585
I2049
sVjuice
p1586
I1024
sVgraffiti
p1587
I411
sValike
p1588
I2145
sVblond
p1589
I412
sVaged
p1590
I1682
sVmountain
p1591
I1683
sVdancing
p1592
I1684
sVdoberman
p1593
I414
sVflaming
p1594
I1076
sVofficers
p1595
I1026
sVcamouflage
p1596
I1027
sVcouch
p1597
I1685
sVlit
p1598
I1028
sValso
p1599
I415
sVlifts
p1600
I1686
sVskiiers
p1601
I1454
sVgym
p1602
I1332
sVplay
p1603
I416
sVtowards
p1604
I1029
sVelectric
p1605
I2315
sVeggs
p1606
I1687
sVtrains
p1607
I288
sVreach
p1608
I2316
sVcigarette
p1609
I2317
sVsponsored
p1610
I1089
sVrefrigerator
p1611
I1689
sVstands
p1612
I2099
sVpatterned
p1613
I2318
sVmobile
p1614
I1031
sVclear
p1615
I1032
sVcover
p1616
I417
sVtraditional
p1617
I2320
sVscantily
p1618
I2369
sVclean
p1619
I1033
sVbarren
p1620
I418
sVbarrel
p1621
I419
sVhips
p1622
I1034
sVstones
p1623
I2322
sVgolf
p1624
I420
sVgold
p1625
I421
sVcowgirl
p1626
I1035
sVhugging
p1627
I1690
sVhillside
p1628
I1691
sVoutdoor
p1629
I1572
sVcarefully
p1630
I1692
sVstores
p1631
I1880
sVgiant
p1632
I1693
sVscooter
p1633
I1037
sVcamel
p1634
I2497
sVpoodles
p1635
I423
sVmoney
p1636
I1573
sV8
p1637
I1694
sVcircle
p1638
I1038
sVboulder
p1639
I1695
sVbegins
p1640
I1334
sVhis
p1641
I2326
sVhit
p1642
I1137
sVdandelion
p1643
I425
sVkilt
p1644
I2203
sVattire
p1645
I2406
sVsunny
p1646
I426
sVtrees
p1647
I1039
sVtoddlers
p1648
I1696
sVpreparing
p1649
I427
sVpretending
p1650
I1040
sVcompeting
p1651
I1041
sVduring
p1652
I1042
sVfootballers
p1653
I1043
sVbanner
p1654
I428
sVhim
p1655
I2328
sVshines
p1656
I2076
sVcatches
p1657
I1044
sVcatcher
p1658
I1045
sVmotorcycles
p1659
I1697
sVpaddling
p1660
I429
sVtracksuit
p1661
I1698
sVnecked
p1662
I2329
sVgloves
p1663
I1047
sVriver
p1664
I2453
sVapproaching
p1665
I431
sVbody
p1666
I1784
sVbars
p1667
I2330
sVset
p1668
I432
sVart
p1669
I1160
sVthrowing
p1670
I1048
sVsee
p1671
I434
sVbare
p1672
I2332
sVtackles
p1673
I1699
sVsea
p1674
I435
sVclose
p1675
I1049
sVarm
p1676
I2334
sVbarn
p1677
I2335
sVknees
p1678
I436
sV#
p1679
I437
sVmovie
p1680
I438
sVfans
p1681
I1700
sVvarious
p1682
I2336
sVcrosswalk
p1683
I439
sVrecently
p1684
I2337
sVcreating
p1685
I2338
sVoutdoors
p1686
I2312
sVoutfit
p1687
I2340
sVspray
p1688
I1052
sVlitter
p1689
I2372
sVfloats
p1690
I1701
sVboth
p1691
I1207
sVfolding
p1692
I1702
sVrestaurant
p1693
I1703
sVsparring
p1694
I1704
sVcampfire
p1695
I2511
sVtongues
p1696
I2313
sVflies
p1697
I2341
sVheaded
p1698
I1054
sVcommunity
p1699
I440
sVnewborn
p1700
I1706
sVskips
p1701
I1055
sVdances
p1702
I1707
sVbadminton
p1703
I1056
sVclimbers
p1704
I1057
sVvillage
p1705
I2342
sVgoats
p1706
I2343
sVdevil
p1707
I441
sVraise
p1708
I1709
sVoverlook
p1709
I2345
sVhitting
p1710
I442
sVran
p1711
I2000
sVdropping
p1712
I1710
sVbrick
p1713
I2346
sVmeeting
p1714
I1711
sVempty
p1715
I1058
sVresting
p1716
I443
sVsleeved
p1717
I444
sVpartly
p1718
I1059
sVsquirrel
p1719
I445
sVboy
p1720
I1460
sVfire
p1721
I446
sVwheeler
p1722
I447
sVgas
p1723
I1714
sVracer
p1724
I448
sVraces
p1725
I449
sVsleeves
p1726
I450
sVinstructor
p1727
I2349
sVwheeled
p1728
I730
sVplants
p1729
I2350
sVfur
p1730
I1715
sVlook
p1731
I1061
sVpedestrian
p1732
I2351
sVfrozen
p1733
I2352
sVballoons
p1734
I2353
sVstraight
p1735
I451
sVrope
p1736
I1062
sVwhile
p1737
I1274
sVmatch
p1738
I1886
sVleaning
p1739
I452
sVfun
p1740
I1716
sVkissing
p1741
I453
sVbiking
p1742
I1064
sVpack
p1743
I1065
sVsuspended
p1744
I1509
sVleans
p1745
I2355
sVducks
p1746
I454
sVreads
p1747
I1066
sVitself
p1748
I1717
sVready
p1749
I1067
sVchase
p1750
I455
sVfunny
p1751
I456
sVshirt
p1752
I1306
sVfetching
p1753
I457
sVmakeshift
p1754
I1068
sVhallway
p1755
I1070
sVoverweight
p1756
I1071
sVcement
p1757
I2358
sVmoment
p1758
I1718
sVuses
p1759
I1072
sVcleaning
p1760
I1073
sVsandals
p1761
I1720
sVlacrosse
p1762
I1721
sVsumo
p1763
I298
sVbeanie
p1764
I1723
sVolder
p1765
I1074
sVcheek
p1766
I2361
sVbounces
p1767
I1339
sVpicks
p1768
I459
sVperson
p1769
I460
sVcheer
p1770
I2363
sVedge
p1771
I2364
sVflags
p1772
I1724
sVclears
p1773
I1075
sVcave
p1774
I1025
sVmom
p1775
I1578
sVpigeons
p1776
I2365
sVdesk
p1777
I610
sVusing
p1778
I1261
sVhelmeted
p1779
I462
sVjumpsuit
p1780
I1725
sVtables
p1781
I2366
sVporch
p1782
I2422
sVcut
p1783
I1726
sVcup
p1784
I1727
sVworkers
p1785
I2367
sVscales
p1786
I2414
sVparents
p1787
I463
sVlocation
p1788
I464
sVcrying
p1789
I465
sVbridal
p1790
I1729
sVshovels
p1791
I1379
sVeaster
p1792
I1730
sVexcited
p1793
I1731
sVbin
p1794
I1732
sVvendor
p1795
I2368
sVbig
p1796
I1733
sVskateboards
p1797
I466
sVbib
p1798
I1734
sVgame
p1799
I1079
sVwings
p1800
I1080
sVflannel
p1801
I467
sVkayak
p1802
I1466
sVvests
p1803
I1081
sVdeflated
p1804
I2202
sVpuck
p1805
I1989
sVfollows
p1806
I1735
sVglove
p1807
I1736
sVsleds
p1808
I612
sVindividuals
p1809
I393
sVsprinklers
p1810
I2371
sVspins
p1811
I468
sVcones
p1812
I1083
sVduck
p1813
I2416
sVsome
p1814
I1084
sVback
p1815
I1738
sVbounce
p1816
I469
sVmartial
p1817
I1739
sVlips
p1818
I1085
sVpalm
p1819
I471
sVclown
p1820
I2373
sVmirror
p1821
I1740
sVcandle
p1822
I1741
sVpale
p1823
I472
sVamongst
p1824
I2224
sVjewelry
p1825
I1742
sVmaroon
p1826
I2530
sVpet
p1827
I1743
sVsinging
p1828
I1123
sVpen
p1829
I1744
sVsneakers
p1830
I1745
sVt
p1831
I920
sVbe
p1832
I473
sVcameraman
p1833
I1747
sVflute
p1834
I1688
sVrun
p1835
I1086
sVjumps
p1836
I2374
sVrug
p1837
I1087
sVstep
p1838
I1088
sVsanta
p1839
I474
sVcostumed
p1840
I1749
sVby
p1841
I475
sVplaza
p1842
I1472
sVsurfers
p1843
I2376
sVrange
p1844
I2377
sVblock
p1845
I1090
sVgarbage
p1846
I476
sVinto
p1847
I477
sVwithin
p1848
I1091
sVframed
p1849
I1750
sVframes
p1850
I1751
sVrolls
p1851
I1092
sVsunglasses
p1852
I2011
sVjockey
p1853
I1753
sVarcade
p1854
I2148
sVretrieving
p1855
I478
sVlone
p1856
I2380
sVamidst
p1857
I1126
sVharnesses
p1858
I479
sVbridesmaids
p1859
I480
sVsuit
p1860
I481
sVforward
p1861
I1755
sVopens
p1862
I482
sVopponent
p1863
I1756
sVmountains
p1864
I2382
sVgroomsmen
p1865
I1757
sVhimself
p1866
I1093
sVposter
p1867
I483
sVatop
p1868
I484
sVboys
p1869
I1758
sVlink
p1870
I485
sVline
p1871
I486
sVrelaxes
p1872
I487
sVraising
p1873
I1530
sVlaptop
p1874
I2047
sVskull
p1875
I1094
sVup
p1876
I488
sVwindows
p1877
I2319
sVsimilar
p1878
I1095
sVaerial
p1879
I489
sVadults
p1880
I1096
sVsoars
p1881
I2385
sVstripped
p1882
I1761
sVsingle
p1883
I1762
sVcurb
p1884
I1763
sVrally
p1885
I2386
sVcafe
p1886
I283
sVrainbow
p1887
I2387
sVpeach
p1888
I2388
sVpeace
p1889
I2389
sVbacks
p1890
I2390
sVnap
p1891
I1098
sVtarp
p1892
I300
sVnice
p1893
I2391
sVsmiles
p1894
I1099
sVspectators
p1895
I1100
sVcrouching
p1896
I1101
sVfiretruck
p1897
I1765
sVhelping
p1898
I2392
sVcobblestone
p1899
I491
sVdrag
p1900
I1102
sVwakeboarding
p1901
I2394
sVfishes
p1902
I312
sVposters
p1903
I2395
sVformal
p1904
I1103
sVsides
p1905
I492
sVstructure
p1906
I1104
sVlane
p1907
I493
sVland
p1908
I494
sVoverlooking
p1909
I1768
sVpedestrians
p1910
I495
sVvehicles
p1911
I1769
sVopposing
p1912
I519
sVlying
p1913
I2321
sVfar
p1914
I2243
sVhaving
p1915
I497
sVwrestle
p1916
I2396
sVsplashing
p1917
I347
sVsnowmobile
p1918
I1771
sVgo
p1919
I1105
sVasphalt
p1920
I2323
sVpeanut
p1921
I1772
sVfenced
p1922
I1051
sVyoung
p1923
I498
sVsuits
p1924
I1106
sVmarkings
p1925
I1495
sVdoes
p1926
I615
sVhelps
p1927
I1773
sVwindsurfer
p1928
I1639
sVgravel
p1929
I370
sVrag
p1930
I2397
sVmuzzles
p1931
I1107
sVgarden
p1932
I499
sVoutside
p1933
I2173
sVkitty
p1934
I1108
sVwave
p1935
I1109
sVballs
p1936
I521
sVputting
p1937
I1775
sVmuzzled
p1938
I1110
sVbounding
p1939
I2398
sVanimals
p1940
I500
sVdrinking
p1941
I2399
sVtutu
p1942
I2400
sVlegos
p1943
I1776
sVtri
p1944
I501
sVpops
p1945
I2008
sVsnowboards
p1946
I1111
sVsculpture
p1947
I2464
sVbutton
p1948
I1112
sVmichael
p1949
I1113
sVcolors
p1950
I2009
sVtry
p1951
I502
sVtunnel
p1952
I1795
sVrace
p1953
I503
sVchoppy
p1954
I1777
sVrack
p1955
I504
sVsmaller
p1956
I2401
sVwrestling
p1957
I2402
sVboots
p1958
I1114
sVjump
p1959
I1115
sVperched
p1960
I2403
sVblowing
p1961
I618
sVvideo
p1962
I505
sVenclosed
p1963
I506
sVpajamas
p1964
I413
sVplays
p1965
I1118
sVpower
p1966
I305
sVgiving
p1967
I1780
sVpaddle
p1968
I1781
sVwaiting
p1969
I2405
sVindian
p1970
I507
sVpoles
p1971
I1119
sVflowing
p1972
I508
sVkayaker
p1973
I1782
sVbird
p1974
I430
sVexercise
p1975
I1783
sVscenery
p1976
I509
sVshoreline
p1977
I1120
sVleg
p1978
I510
sVgathered
p1979
I511
sVpushing
p1980
I2407
sVdressed
p1981
I1913
sVgeyser
p1982
I1551
sVothers
p1983
I1785
sVsing
p1984
I1786
sVjockeys
p1985
I1787
sVextreme
p1986
I1788
sVcyclist
p1987
I1713
sVgreat
p1988
I512
sVlarger
p1989
I2408
sVshades
p1990
I2409
sVleaving
p1991
I2410
sVsubmerged
p1992
I2411
sVclimb
p1993
I1789
sVmakes
p1994
I513
sVwrites
p1995
I422
sVwig
p1996
I1121
sVshovel
p1997
I2412
sVapple
p1998
I2413
sVoverpass
p1999
I2110
sVsparklers
p2000
I1122
sVmotor
p2001
I2415
sVcheerleader
p2002
I1737
sVlimb
p2003
I1790
sVtools
p2004
I514
sVcloud
p2005
I1124
sVstanding
p2006
I515
sVstrapped
p2007
I1125
sVfrom
p2008
I2418
sVstream
p2009
I2419
sVzip
p2010
I516
sVfrog
p2011
I2420
sVnext
p2012
I517
sVfew
p2013
I2421
sVcamera
p2014
I1127
sVvehicle
p2015
I1128
sVtoy
p2016
I1990
sVthemselves
p2017
I1791
sVstage
p2018
I619
sVcheeks
p2019
I1130
sVsort
p2020
I1759
sVcorndogs
p2021
I1792
sVwades
p2022
I2213
sVabout
p2023
I1894
sVtrail
p2024
I1793
sVcarrying
p2025
I433
sVrabbit
p2026
I2423
sVbaby
p2027
I520
sVwomen
p2028
I1462
sVcrosses
p2029
I1131
sVpracticing
p2030
I522
sVthis
p2031
I523
sVathlete
p2032
I524
sVsaddle
p2033
I2516
sVcrossed
p2034
I1132
sVthin
p2035
I525
sVisland
p2036
I1590
sVindustrial
p2037
I1988
sVmeet
p2038
I1133
sVfetch
p2039
I1796
sVsomething
p2040
I2428
sVcontrol
p2041
I1134
sVpicture
p2042
I2082
sVbent
p2043
I526
sVplate
p2044
I82
sVhalloween
p2045
I1135
sVpieces
p2046
I527
sVhigh
p2047
I528
sVtag
p2048
I2427
sVpulling
p2049
I1136
sVbend
p2050
I2327
sVslip
p2051
I529
sVdj
p2052
I716
sVtan
p2053
I2429
sVpaws
p2054
I530
sVskirt
p2055
I1138
sVnative
p2056
I1797
sVsit
p2057
I2430
sVbungee
p2058
I2431
sVboxing
p2059
I538
sVcarries
p2060
I2518
sVformations
p2061
I1799
sVlocated
p2062
I1139
sVcamels
p2063
I2433
sVforest
p2064
I1800
sVanimal
p2065
I532
sVtoddler
p2066
I2434
sVcircular
p2067
I1141
sVwatery
p2068
I547
sVbuildings
p2069
I1802
sVblocks
p2070
I533
sVhalter
p2071
I534
sVfarm
p2072
I1142
sVwatch
p2073
I2012
sVwaters
p2074
I1803
sVtied
p2075
I535
sVbelongings
p2076
I1143
sVterrier
p2077
I1804
sVchasing
p2078
I1805
sVlight
p2079
I2437
sVcounter
p2080
I536
sVlines
p2081
I1806
sVrobot
p2082
I537
sVcrawling
p2083
I2439
sVnecklace
p2084
I2440
sVlined
p2085
I1807
sVmustache
p2086
I1808
sVbathing
p2087
I1144
sVholds
p2088
I1798
sVmove
p2089
I575
sVwhilst
p2090
I2441
sVincluding
p2091
I1145
sVmotorcycle
p2092
I578
sVhorns
p2093
I1809
sVbunch
p2094
I1810
sVunderwater
p2095
I2230
sVtightrope
p2096
I531
sVbroom
p2097
I1858
sVsquatting
p2098
I1811
sVmarsh
p2099
I1812
sVorange
p2100
I1868
sVcovered
p2101
I2445
sVcrowds
p2102
I2446
sVcrash
p2103
I2447
sVskater
p2104
I1476
sVskates
p2105
I1477
sVbat
p2106
I1357
sVdock
p2107
I539
sVcutting
p2108
I1813
sVsnake
p2109
I540
sVkiss
p2110
I541
sVhands
p2111
I1148
sVfront
p2112
I1149
sVcage
p2113
I542
sVday
p2114
I1814
sVstunts
p2115
I1815
sVblindfolded
p2116
I1816
sVscenic
p2117
I543
sVuniversity
p2118
I1150
sVsniffing
p2119
I544
sVslide
p2120
I1151
sVweather
p2121
I2522
sVtights
p2122
I85
sVcrossing
p2123
I1152
sVbeneath
p2124
I545
sVonlookers
p2125
I1801
sVshaking
p2126
I1153
sVrowing
p2127
I2015
sVglasses
p2128
I546
sVtents
p2129
I548
sVdoing
p2130
I549
sVhurdles
p2131
I2435
sVmulticolored
p2132
I1154
sVjagged
p2133
I550
sVsweatshirt
p2134
I1818
sVpatch
p2135
I87
sVspecial
p2136
I1155
sVout
p2137
I2449
sVmats
p2138
I1820
sVparasailing
p2139
I2450
sVoriental
p2140
I1821
sVplayground
p2141
I1156
sVperforms
p2142
I2451
sVred
p2143
I1822
sVracquet
p2144
I314
sVumbrella
p2145
I1157
sVpours
p2146
I2452
sVapproaches
p2147
I1823
sVmasks
p2148
I2436
sVvan
p2149
I2525
sVsteering
p2150
I551
sVretrieves
p2151
I1824
sVretriever
p2152
I1825
sVscary
p2153
I552
sVbackwards
p2154
I1826
sVyard
p2155
I660
sVher
p2156
I315
sVflorida
p2157
I1158
sVchicken
p2158
I2472
sVwading
p2159
I1159
sVbiting
p2160
I2454
sVmotorbikes
p2161
I553
sVscarf
p2162
I554
sVsnowcapped
p2163
I2457
sVbouquet
p2164
I2455
sVscene
p2165
I555
sVreaches
p2166
I682
sVhurdle
p2167
I688
sVowner
p2168
I556
sVstump
p2169
I2331
sVblows
p2170
I557
sVumbrellas
p2171
I2456
sVmonkey
p2172
I1828
sVfestival
p2173
I558
sVguys
p2174
I1481
sVseat
p2175
I1536
sVtheir
p2176
I2458
sVattack
p2177
I1162
sVwrapped
p2178
I1163
sVchases
p2179
I1830
sVgraffitied
p2180
I710
sVpaved
p2181
I1164
sVagility
p2182
I2459
sVstomach
p2183
I401
sVlot
p2184
I932
sVshepherd
p2185
I2325
sVshorts
p2186
I560
sVshallow
p2187
I2460
sVdreadlocks
p2188
I2461
sVslides
p2189
I2462
sVreflecting
p2190
I2463
sVfuzzy
p2191
I2010
sVpoliceman
p2192
I2091
sVherself
p2193
I1165
sVwaist
p2194
I1166
sVphotograph
p2195
I1167
sVbed
p2196
I1168
sVbee
p2197
I1169
sVsteep
p2198
I561
sVare
p2199
I2333
sVexhibit
p2200
I1170
sVstraps
p2201
I2438
sVteenagers
p2202
I2465
sVhooping
p2203
I1171
sVhave
p2204
I1832
sVborder
p2205
I1172
sVsidecar
p2206
I1833
sVsings
p2207
I2041
sVmicrophone
p2208
I2042
sVmountainous
p2209
I562
sVsprinkler
p2210
I1173
sVmid
p2211
I1834
sVwhich
p2212
I2466
sVtruck
p2213
I210
sVparka
p2214
I1835
sVmountaintop
p2215
I1175
sVmedals
p2216
I293
sVcombat
p2217
I2467
sVshaped
p2218
I2370
sVeight
p2219
I1836
sVbut
p2220
I1903
sVdevice
p2221
I563
sVgallery
p2222
I1177
sVcellphone
p2223
I1178
sVgather
p2224
I1838
sVface
p2225
I564
sVpipe
p2226
I2470
sVconstruction
p2227
I625
sVgesture
p2228
I1486
sVpictures
p2229
I1050
sVskinny
p2230
I1839
sVpainting
p2231
I565
sVlease
p2232
I1677
sVemerging
p2233
I1180
sVkite
p2234
I1840
sVkiddie
p2235
I1181
sVrings
p2236
I92
sVstove
p2237
I2471
sVindoor
p2238
I1182
sVbiker
p2239
I567
sVbikes
p2240
I568
sVparked
p2241
I1183
sVbedroom
p2242
I570
sVrough
p2243
I571
sVcoloring
p2244
I1841
sVtire
p2245
I1184
sV(
p2246
I1185
sVjar
p2247
I572
sVbug
p2248
I1904
sVtape
p2249
I573
sVriding
p2250
I574
sVsurfs
p2251
I1186
sVpartially
p2252
I1905
sVpointed
p2253
I1489
sVphotographs
p2254
I812
sVhandle
p2255
I576
sVwatching
p2256
I2474
sVstripes
p2257
I1842
sVbear
p2258
I1843
sVbeam
p2259
I1844
sVmade
p2260
I2527
sVbeak
p2261
I1845
sVstriped
p2262
I1846
sVcutout
p2263
I2475
sVgray
p2264
I1187
sVtrucks
p2265
I1188
sVteams
p2266
I1847
sVshe
p2267
I2132
sVwaterfalls
p2268
I2476
sVgrab
p2269
I1189
sVhandstand
p2270
I577
sVcostume
p2271
I1146
sVspotted
p2272
I1190
sVrafts
p2273
I2142
sVturkeys
p2274
I1848
sVhardwood
p2275
I1191
sVframe
p2276
I579
sVterrain
p2277
I1192
sVcomputer
p2278
I1193
sVdriveway
p2279
I2155
sVskateboarding
p2280
I580
sVracket
p2281
I1850
sVtuxedos
p2282
I1851
sVpacked
p2283
I581
sVwire
p2284
I582
sVinteracting
p2285
I583
sVattempting
p2286
I1852
sVclearing
p2287
I864
sVposing
p2288
I2426
sVtool
p2289
I1996
sVpurses
p2290
I1854
sVpinata
p2291
I1195
sVwritten
p2292
I1194
sVclosed
p2293
I2477
sVprogress
p2294
I1855
sVtent
p2295
I1196
sVends
p2296
I584
sVattention
p2297
I2339
sVopening
p2298
I2479
sVjoy
p2299
I2480
sVbuckets
p2300
I1197
sVcourtyard
p2301
I585
sVkicking
p2302
I1198
sVmerry
p2303
I1199
sVpolice
p2304
I1200
sVstaring
p2305
I586
sVhits
p2306
I1201
sVdrum
p2307
I587
sVtaking
p2308
I1856
sVramp
p2309
I588
sVdoorway
p2310
I589
sVpassing
p2311
I1857
sVterriers
p2312
I2444
sVjersey
p2313
I1203
sVchinese
p2314
I2235
sVstatues
p2315
I1859
sVpounces
p2316
I591
sVwall
p2317
I2483
sVdenim
p2318
I1860
sVbikini
p2319
I1063
sVwalk
p2320
I2484
sVlaugh
p2321
I1861
sVtable
p2322
I1628
sVpouring
p2323
I1862
sVflowered
p2324
I2089
sVmotorbike
p2325
I2485
sVswimmer
p2326
I1863
sVmuddy
p2327
I1864
sVpolka
p2328
I1204
sVfog
p2329
I781
sVcurtain
p2330
I1865
sVfeather
p2331
I592
sVjuggles
p2332
I1866
sVshoulders
p2333
I1206
sVleague
p2334
I1053
sVpainted
p2335
I2486
sVridden
p2336
I1867
sVdeep
p2337
I1601
sVbull
p2338
I1869
sVkicks
p2339
I1208
sVsmoking
p2340
I1209
sVfellow
p2341
I1602
sVmulti
p2342
I1870
sVplaid
p2343
I1871
sVcouple
p2344
I117
sVplain
p2345
I1872
sVchalk
p2346
I1210
sVwild
p2347
I2488
sVbathtub
p2348
I593
sVwaterskier
p2349
I1211
sValmost
p2350
I1873
sVlush
p2351
I594
sVsite
p2352
I595
sVsurface
p2353
I1212
sVswinging
p2354
I1213
sVlambs
p2355
I1214
sVsits
p2356
I596
sVtattoo
p2357
I597
sVmoves
p2358
I598
sVballoon
p2359
I1215
sVupside
p2360
I1967
sVmember
p2361
I2490
sVstrange
p2362
I1216
sVtumbling
p2363
I1874
sVdigging
p2364
I599
sVparty
p2365
I1217
sVgets
p2366
I2491
sVinjured
p2367
I1875
sVcellphones
p2368
I2492
sVball
p2369
I600
sVfireman
p2370
I1218
sVearphones
p2371
I1595
sVbald
p2372
I1001
sVbinoculars
p2373
I1876
sVdust
p2374
I603
sVoveralls
p2375
I604
sVcollar
p2376
I2305
sVnumbered
p2377
I1877
sVunderneath
p2378
I2126
sVoff
p2379
I605
sVreflection
p2380
I1219
sVi
p2381
I1220
sVobstacles
p2382
I1221
sVwell
p2383
I1222
sVfighting
p2384
I2493
sVsets
p2385
I1879
sVawning
p2386
I1223
sVposition
p2387
I1030
sVdrawing
p2388
I606
sVbandanna
p2389
I2494
sVbending
p2390
I2495
sVcoaster
p2391
I1036
sVbarking
p2392
I1881
sVrocket
p2393
I2496
sVheavily
p2394
I2324
sVhalf
p2395
I2498
sVdistant
p2396
I1224
sVfishing
p2397
I2499
sVseats
p2398
I1882
sVfield
p2399
I1604
sVresidential
p2400
I607
sVpoint
p2401
I1705
sVsky
p2402
I2500
sVlake
p2403
I1883
sVbench
p2404
I1884
sVbackpacker
p2405
I1885
sVother
p2406
I2535
sVextends
p2407
I1225
sVwet
p2408
I1060
sVfootballer
p2409
I1226
sVkick
p2410
I1227
sVidentical
p2411
I2503
sVbranch
p2412
I2536
sVchecking
p2413
I608
sVfive
p2414
I609
sVunseen
p2415
I1228
sVbottoms
p2416
I1229
sVintersection
p2417
I1230
sVpier
p2418
I611
sVrollerblading
p2419
I1605
sVtrash
p2420
I2231
sVshowing
p2421
I1078
sVlike
p2422
I1887
sVchairs
p2423
I1082
sVsofa
p2424
I1888
sVring
p2425
I849
sVcandy
p2426
I1231
sVsized
p2427
I1232
sVgarage
p2428
I613
sVdancer
p2429
I1708
sVdresses
p2430
I1917
sVworks
p2431
I1889
sVsoft
p2432
I1890
sVshed
p2433
I1233
sVschool
p2434
I1930
sVinteract
p2435
I2303
sVswimsuits
p2436
I1891
sVhair
p2437
I1892
sVgymnastics
p2438
I614
sVhome
p2439
I1234
sVleaf
p2440
I2507
sVlead
p2441
I2508
sVdunes
p2442
I1893
sVlean
p2443
I2509
sVgrinding
p2444
I1235
sVleap
p2445
I2510
sVfountain
p2446
I953
sVearrings
p2447
I2512
sVblurry
p2448
I616
sVstairway
p2449
I617
sVhose
p2450
I1116
sVmedieval
p2451
I1236
sVreaching
p2452
I1237
sVdangling
p2453
I2513
sVrock
p2454
I1497
sVpasta
p2455
I2514
sVhiding
p2456
I1129
sVsister
p2457
I620
sVboards
p2458
I1895
sVgetting
p2459
I2425
sVcolumn
p2460
I2517
sVrodeo
p2461
I1238
sVseeds
p2462
I1140
sVbeige
p2463
I1239
sVpuppies
p2464
I1240
sVtongue
p2465
I1241
sVswimming
p2466
I621
sVown
p2467
I2520
sVletters
p2468
I622
sVwilderness
p2469
I2521
sVsocks
p2470
I1896
sVguard
p2471
I1897
sVtrunks
p2472
I2128
sVtreads
p2473
I1242
sVfemale
p2474
I1898
sVswimmers
p2475
I623
sVrowboat
p2476
I2524
sVridge
p2477
I1899
sVmuseum
p2478
I1243
sVfirefighter
p2479
I1900
sVspots
p2480
I624
sVbeverage
p2481
I331
sVcricket
p2482
I1244
sVbuy
p2483
I1901
sVbus
p2484
I1902
sVfountains
p2485
I1245
sVhi
p2486
I1246
sVear
p2487
I1247
sVeat
p2488
I1248
sVhe
p2489
I1249
sVleashed
p2490
I626
sVtossed
p2491
I627
sVofficial
p2492
I628
sVsmooth
p2493
I629
sVflip
p2494
I1906
sVplaced
p2495
I630
sVcarriage
p2496
I1250
sVtosses
p2497
I631
sVleashes
p2498
I632
sVmonument
p2499
I633
sVcake
p2500
I2481
sVpiece
p2501
I1251
sVdisplay
p2502
I1252
sVskating
p2503
I1907
sVbearing
p2504
I634
sVmarketplace
p2505
I1253
sVint
p2506
I635
sVcurve
p2507
I2233
sVdomino
p2508
I1908
sVdish
p2509
I2236
sVkisses
p2510
I1254
sVtopless
p2511
I1909
sVgnawing
p2512
I2487
sVboardwalk
p2513
I2531
sVreferee
p2514
I2347
sVflight
p2515
I2348
sVshooting
p2516
I1910
sVpit
p2517
I1911
sVcampus
p2518
I1912
sVbalcony
p2519
I1255
sVfencing
p2520
I1256
sVguitarist
p2521
I2533
sVwaterskiing
p2522
I2534
sVjeeps
p2523
I1914
sVbook
p2524
I2501
sVpopping
p2525
I1819
sVledge
p2526
I1916
sVponytail
p2527
I637
sVfrisbee
p2528
I638
sVstar
p2529
I1257
sVliving
p2530
I1500
sVclass
p2531
I2469
sVpumps
p2532
I2537
sVpeeks
p2533
I2234
sVjackson
p2534
I1501
sVfriends
p2535
I1260
sVcliff
p2536
I2526
sVhiker
p2537
I1918
sVhikes
p2538
I1919
sVcompete
p2539
I641
sVrural
p2540
I1259
ssS'ixtoword'
p2541
(dp2542
I0
S'.'
p2543
sI1
g7
sI2
g8
sI3
g10
sI4
g12
sI5
g13
sI6
g30
sI7
g32
sI8
g40
sI9
g42
sI10
g44
sI11
g317
sI12
g51
sI13
g52
sI14
g851
sI15
g70
sI16
g75
sI17
g79
sI18
g81
sI19
g82
sI20
g95
sI21
g595
sI22
g100
sI23
g103
sI24
g106
sI25
g107
sI26
g119
sI27
g124
sI28
g127
sI29
g130
sI30
g131
sI31
g132
sI32
g151
sI33
g162
sI34
g163
sI35
g169
sI36
g172
sI37
g182
sI38
g188
sI39
g194
sI40
g195
sI41
g197
sI42
g198
sI43
g208
sI44
g222
sI45
g886
sI46
g228
sI47
g232
sI48
g235
sI49
g236
sI50
g241
sI51
g246
sI52
g247
sI53
g253
sI54
g259
sI55
g266
sI56
g224
sI57
g274
sI58
g275
sI59
g277
sI60
g283
sI61
g284
sI62
g285
sI63
g287
sI64
g291
sI65
g292
sI66
g293
sI67
g295
sI68
g298
sI69
g303
sI70
g305
sI71
g307
sI72
g309
sI73
g310
sI74
g316
sI75
g50
sI76
g318
sI77
g321
sI78
g322
sI79
g323
sI80
g324
sI81
g327
sI82
g2044
sI83
g332
sI84
g337
sI85
g2122
sI86
g344
sI87
g2135
sI88
g348
sI89
g351
sI90
g354
sI91
g356
sI92
g2236
sI93
g365
sI94
g368
sI95
g369
sI96
g374
sI97
g376
sI98
g380
sI99
g920
sI100
g388
sI101
g390
sI102
g393
sI103
g401
sI104
g402
sI105
g405
sI106
g407
sI107
g409
sI108
g1173
sI109
g411
sI110
g422
sI111
g425
sI112
g426
sI113
g429
sI114
g432
sI115
g438
sI116
g443
sI117
g2344
sI118
g448
sI119
g218
sI120
g455
sI121
g471
sI122
g479
sI123
g483
sI124
g486
sI125
g487
sI126
g491
sI127
g499
sI128
g505
sI129
g506
sI130
g511
sI131
g512
sI132
g513
sI133
g514
sI134
g515
sI135
g516
sI136
g518
sI137
g520
sI138
g521
sI139
g528
sI140
g689
sI141
g537
sI142
g540
sI143
g543
sI144
g822
sI145
g553
sI146
g554
sI147
g557
sI148
g560
sI149
g561
sI150
g572
sI151
g584
sI152
g587
sI153
g592
sI154
g99
sI155
g599
sI156
g600
sI157
g610
sI158
g611
sI159
g616
sI160
g623
sI161
g624
sI162
g625
sI163
g627
sI164
g630
sI165
g637
sI166
g638
sI167
g639
sI168
g640
sI169
g641
sI170
g642
sI171
g646
sI172
g647
sI173
g654
sI174
g661
sI175
g662
sI176
g663
sI177
g669
sI178
g670
sI179
g671
sI180
g673
sI181
g676
sI182
g677
sI183
g678
sI184
g682
sI185
g684
sI186
g685
sI187
g691
sI188
g697
sI189
g698
sI190
g703
sI191
g706
sI192
g718
sI193
g721
sI194
g723
sI195
g731
sI196
g733
sI197
g734
sI198
g735
sI199
g742
sI200
g751
sI201
g753
sI202
g756
sI203
g758
sI204
g765
sI205
g772
sI206
g779
sI207
g780
sI208
g784
sI209
g785
sI210
g2213
sI211
g790
sI212
g794
sI213
g796
sI214
g797
sI215
g798
sI216
g804
sI217
g807
sI218
g814
sI219
g819
sI220
g824
sI221
g828
sI222
g829
sI223
g832
sI224
g833
sI225
g839
sI226
g853
sI227
g857
sI228
g858
sI229
g874
sI230
g880
sI231
g881
sI232
g882
sI233
g884
sI234
g240
sI235
g893
sI236
g895
sI237
g904
sI238
g912
sI239
g914
sI240
g918
sI241
g923
sI242
g924
sI243
g927
sI244
g931
sI245
g936
sI246
g939
sI247
g940
sI248
g945
sI249
g951
sI250
g953
sI251
g956
sI252
g961
sI253
g965
sI254
g976
sI255
g978
sI256
g979
sI257
g984
sI258
g993
sI259
g995
sI260
g997
sI261
g1006
sI262
g1007
sI263
g1011
sI264
g1016
sI265
g1020
sI266
g1022
sI267
g1023
sI268
g1024
sI269
g1029
sI270
g1031
sI271
g1032
sI272
g1035
sI273
g1051
sI274
g1055
sI275
g1056
sI276
g1058
sI277
g1064
sI278
g1070
sI279
g1075
sI280
g1076
sI281
g1080
sI282
g1083
sI283
g1886
sI284
g1109
sI285
g1533
sI286
g1113
sI287
g1116
sI288
g1607
sI289
g1125
sI290
g1126
sI291
g1127
sI292
g1131
sI293
g2216
sI294
g1141
sI295
g1145
sI296
g1146
sI297
g1148
sI298
g1763
sI299
g1154
sI300
g1892
sI301
g1162
sI302
g1167
sI303
g1171
sI304
g1174
sI305
g1966
sI306
g1191
sI307
g190
sI308
g1198
sI309
g1203
sI310
g1205
sI311
g1207
sI312
g1902
sI313
g1212
sI314
g2144
sI315
g2156
sI316
g1226
sI317
g1228
sI318
g1231
sI319
g1238
sI320
g1239
sI321
g1244
sI322
g1251
sI323
g1252
sI324
g1253
sI325
g1254
sI326
g1255
sI327
g1256
sI328
g1258
sI329
g1259
sI330
g1264
sI331
g2481
sI332
g1268
sI333
g1269
sI334
g1273
sI335
g1280
sI336
g1281
sI337
g1282
sI338
g1283
sI339
g1284
sI340
g1291
sI341
g1304
sI342
g1166
sI343
g1307
sI344
g1308
sI345
g1309
sI346
g1310
sI347
g1917
sI348
g1071
sI349
g1322
sI350
g1323
sI351
g1325
sI352
g1326
sI353
g1333
sI354
g1334
sI355
g1348
sI356
g1366
sI357
g1367
sI358
g1371
sI359
g1374
sI360
g1376
sI361
g1377
sI362
g1381
sI363
g1382
sI364
g1384
sI365
g1385
sI366
g1389
sI367
g1390
sI368
g1392
sI369
g1394
sI370
g1929
sI371
g1403
sI372
g1407
sI373
g1409
sI374
g1414
sI375
g1416
sI376
g1422
sI377
g1424
sI378
g1428
sI379
g1430
sI380
g1431
sI381
g1433
sI382
g1435
sI383
g1437
sI384
g1438
sI385
g1441
sI386
g1448
sI387
g1454
sI388
g1462
sI389
g1464
sI390
g1465
sI391
g1466
sI392
g1468
sI393
g1809
sI394
g1479
sI395
g1480
sI396
g1486
sI397
g1491
sI398
g1492
sI399
g1502
sI400
g1509
sI401
g2183
sI402
g1527
sI403
g1541
sI404
g1544
sI405
g1551
sI406
g1552
sI407
g1562
sI408
g1565
sI409
g1570
sI410
g1572
sI411
g1587
sI412
g1589
sI413
g1964
sI414
g1593
sI415
g1599
sI416
g1603
sI417
g1616
sI418
g1620
sI419
g1621
sI420
g1624
sI421
g1625
sI422
g1995
sI423
g1635
sI424
g270
sI425
g1643
sI426
g1646
sI427
g1649
sI428
g1654
sI429
g1660
sI430
g1974
sI431
g1665
sI432
g1668
sI433
g2025
sI434
g1671
sI435
g1674
sI436
g1678
sI437
g1679
sI438
g1680
sI439
g1683
sI440
g1699
sI441
g1707
sI442
g1710
sI443
g1716
sI444
g1717
sI445
g1719
sI446
g1721
sI447
g1722
sI448
g1724
sI449
g1725
sI450
g1726
sI451
g1735
sI452
g1739
sI453
g1741
sI454
g1746
sI455
g1750
sI456
g1751
sI457
g1753
sI458
g238
sI459
g1768
sI460
g1769
sI461
g973
sI462
g1779
sI463
g1787
sI464
g1788
sI465
g1789
sI466
g1797
sI467
g1801
sI468
g1811
sI469
g1816
sI470
g586
sI471
g1819
sI472
g1823
sI473
g1832
sI474
g1839
sI475
g1841
sI476
g1846
sI477
g1847
sI478
g1855
sI479
g1858
sI480
g1859
sI481
g1860
sI482
g1862
sI483
g1867
sI484
g1868
sI485
g1870
sI486
g1871
sI487
g1872
sI488
g1876
sI489
g1879
sI490
g1052
sI491
g1899
sI492
g1905
sI493
g1907
sI494
g1908
sI495
g1910
sI496
g1265
sI497
g1915
sI498
g1923
sI499
g1932
sI500
g1940
sI501
g1944
sI502
g1951
sI503
g1953
sI504
g1955
sI505
g1962
sI506
g1963
sI507
g1970
sI508
g1972
sI509
g1976
sI510
g1978
sI511
g1979
sI512
g1988
sI513
g1994
sI514
g2004
sI515
g2006
sI516
g2010
sI517
g2012
sI518
g1190
sI519
g1912
sI520
g2027
sI521
g1936
sI522
g2030
sI523
g2031
sI524
g2032
sI525
g2035
sI526
g2043
sI527
g2046
sI528
g2047
sI529
g2051
sI530
g2054
sI531
g2096
sI532
g2065
sI533
g2070
sI534
g2071
sI535
g2075
sI536
g2080
sI537
g2082
sI538
g2059
sI539
g2107
sI540
g2109
sI541
g2110
sI542
g2113
sI543
g2117
sI544
g2119
sI545
g2124
sI546
g2128
sI547
g2068
sI548
g2129
sI549
g2130
sI550
g2133
sI551
g2150
sI552
g2153
sI553
g2161
sI554
g2162
sI555
g2165
sI556
g2168
sI557
g2170
sI558
g2173
sI559
g1225
sI560
g2186
sI561
g2198
sI562
g2209
sI563
g2221
sI564
g2225
sI565
g2231
sI566
g359
sI567
g2239
sI568
g2240
sI569
g666
sI570
g2242
sI571
g2243
sI572
g2247
sI573
g2249
sI574
g2250
sI575
g2089
sI576
g2255
sI577
g2270
sI578
g2092
sI579
g2276
sI580
g2280
sI581
g2283
sI582
g2284
sI583
g2285
sI584
g2296
sI585
g2301
sI586
g2305
sI587
g2307
sI588
g2309
sI589
g2310
sI590
g746
sI591
g2316
sI592
g2331
sI593
g2348
sI594
g2351
sI595
g2352
sI596
g2356
sI597
g2357
sI598
g2358
sI599
g2364
sI600
g2369
sI601
g1476
sI602
g1511
sI603
g2374
sI604
g2375
sI605
g2379
sI606
g2388
sI607
g2400
sI608
g2413
sI609
g2414
sI610
g1777
sI611
g2418
sI612
g1808
sI613
g2428
sI614
g2438
sI615
g1926
sI616
g2448
sI617
g2449
sI618
g1961
sI619
g2018
sI620
g2457
sI621
g2466
sI622
g2468
sI623
g2475
sI624
g2480
sI625
g2227
sI626
g2490
sI627
g2491
sI628
g2492
sI629
g2493
sI630
g2495
sI631
g2497
sI632
g2498
sI633
g2499
sI634
g2504
sI635
g2506
sI636
g1077
sI637
g2527
sI638
g2528
sI639
g930
sI640
g410
sI641
g2539
sI642
g4
sI643
g1290
sI644
g18
sI645
g24
sI646
g26
sI647
g1296
sI648
g33
sI649
g37
sI650
g47
sI651
g1300
sI652
g54
sI653
g61
sI654
g71
sI655
g74
sI656
g78
sI657
g91
sI658
g97
sI659
g102
sI660
g2155
sI661
g108
sI662
g112
sI663
g114
sI664
g125
sI665
g134
sI666
g136
sI667
g137
sI668
g141
sI669
g142
sI670
g144
sI671
g146
sI672
g148
sI673
g150
sI674
g157
sI675
g159
sI676
g164
sI677
g1320
sI678
g177
sI679
g178
sI680
g179
sI681
g180
sI682
g2166
sI683
g181
sI684
g183
sI685
g184
sI686
g186
sI687
g187
sI688
g2167
sI689
g192
sI690
g193
sI691
g1213
sI692
g1235
sI693
g202
sI694
g203
sI695
g204
sI696
g206
sI697
g211
sI698
g214
sI699
g217
sI700
g229
sI701
g248
sI702
g249
sI703
g251
sI704
g257
sI705
g260
sI706
g264
sI707
g272
sI708
g273
sI709
g276
sI710
g2180
sI711
g280
sI712
g299
sI713
g466
sI714
g329
sI715
g331
sI716
g2052
sI717
g334
sI718
g340
sI719
g342
sI720
g352
sI721
g357
sI722
g1398
sI723
g377
sI724
g378
sI725
g379
sI726
g406
sI727
g408
sI728
g418
sI729
g430
sI730
g1728
sI731
g437
sI732
g444
sI733
g447
sI734
g449
sI735
g452
sI736
g453
sI737
g454
sI738
g465
sI739
g467
sI740
g472
sI741
g473
sI742
g475
sI743
g500
sI744
g480
sI745
g481
sI746
g482
sI747
g484
sI748
g485
sI749
g488
sI750
g492
sI751
g493
sI752
g494
sI753
g498
sI754
g508
sI755
g509
sI756
g522
sI757
g525
sI758
g530
sI759
g533
sI760
g535
sI761
g539
sI762
g542
sI763
g548
sI764
g549
sI765
g550
sI766
g564
sI767
g567
sI768
g569
sI769
g570
sI770
g576
sI771
g517
sI772
g593
sI773
g597
sI774
g605
sI775
g607
sI776
g614
sI777
g620
sI778
g626
sI779
g631
sI780
g635
sI781
g2329
sI782
g649
sI783
g650
sI784
g655
sI785
g1512
sI786
g664
sI787
g667
sI788
g679
sI789
g681
sI790
g690
sI791
g700
sI792
g704
sI793
g705
sI794
g709
sI795
g531
sI796
g713
sI797
g714
sI798
g715
sI799
g716
sI800
g717
sI801
g719
sI802
g720
sI803
g728
sI804
g730
sI805
g812
sI806
g737
sI807
g738
sI808
g739
sI809
g740
sI810
g741
sI811
g745
sI812
g2254
sI813
g750
sI814
g752
sI815
g755
sI816
g1421
sI817
g770
sI818
g771
sI819
g777
sI820
g1426
sI821
g781
sI822
g783
sI823
g847
sI824
g795
sI825
g546
sI826
g800
sI827
g801
sI828
g802
sI829
g806
sI830
g811
sI831
g816
sI832
g818
sI833
g821
sI834
g823
sI835
g551
sI836
g831
sI837
g836
sI838
g838
sI839
g840
sI840
g844
sI841
g846
sI842
g850
sI843
g856
sI844
g562
sI845
g870
sI846
g872
sI847
g873
sI848
g878
sI849
g2425
sI850
g883
sI851
g885
sI852
g227
sI853
g888
sI854
g889
sI855
g279
sI856
g902
sI857
g906
sI858
g908
sI859
g913
sI860
g915
sI861
g928
sI862
g935
sI863
g957
sI864
g2287
sI865
g959
sI866
g964
sI867
g969
sI868
g970
sI869
g971
sI870
g975
sI871
g980
sI872
g990
sI873
g1000
sI874
g1003
sI875
g1005
sI876
g1010
sI877
g1012
sI878
g1013
sI879
g1014
sI880
g1034
sI881
g1036
sI882
g1037
sI883
g1040
sI884
g1043
sI885
g1050
sI886
g1177
sI887
g1054
sI888
g1057
sI889
g1066
sI890
g1067
sI891
g1069
sI892
g1072
sI893
g1073
sI894
g1082
sI895
g1089
sI896
g1090
sI897
g1091
sI898
g596
sI899
g1104
sI900
g1106
sI901
g1111
sI902
g1118
sI903
g1119
sI904
g1124
sI905
g602
sI906
g1129
sI907
g1130
sI908
g1481
sI909
g1133
sI910
g1134
sI911
g1138
sI912
g1139
sI913
g1147
sI914
g1149
sI915
g1153
sI916
g1155
sI917
g1156
sI918
g1158
sI919
g1159
sI920
g1831
sI921
g1180
sI922
g1186
sI923
g1189
sI924
g1194
sI925
g1214
sI926
g1216
sI927
g1217
sI928
g1218
sI929
g1222
sI930
g1223
sI931
g1224
sI932
g2184
sI933
g1232
sI934
g1237
sI935
g1240
sI936
g1242
sI937
g1246
sI938
g1247
sI939
g1257
sI940
g1260
sI941
g903
sI942
g1267
sI943
g1274
sI944
g1277
sI945
g1278
sI946
g1285
sI947
g1288
sI948
g1292
sI949
g1293
sI950
g776
sI951
g1302
sI952
g76
sI953
g2446
sI954
g1314
sI955
g1316
sI956
g1318
sI957
g1328
sI958
g1330
sI959
g1338
sI960
g1340
sI961
g1344
sI962
g644
sI963
g1352
sI964
g1354
sI965
g1358
sI966
g1359
sI967
g1360
sI968
g1363
sI969
g1365
sI970
g1370
sI971
g1372
sI972
g1375
sI973
g1380
sI974
g1386
sI975
g1412
sI976
g1417
sI977
g1419
sI978
g1423
sI979
g1432
sI980
g1434
sI981
g1439
sI982
g1442
sI983
g1447
sI984
g1450
sI985
g1452
sI986
g1456
sI987
g1459
sI988
g1461
sI989
g1469
sI990
g1477
sI991
g1482
sI992
g1485
sI993
g1487
sI994
g1489
sI995
g1490
sI996
g1499
sI997
g1501
sI998
g659
sI999
g1505
sI1000
g1506
sI1001
g2372
sI1002
g1513
sI1003
g1516
sI1004
g1518
sI1005
g1520
sI1006
g1522
sI1007
g1531
sI1008
g1532
sI1009
g1554
sI1010
g1555
sI1011
g1550
sI1012
g1545
sI1013
g1558
sI1014
g1563
sI1015
g1564
sI1016
g1559
sI1017
g1573
sI1018
g1574
sI1019
g1575
sI1020
g1577
sI1021
g1580
sI1022
g1582
sI1023
g1584
sI1024
g1586
sI1025
g1774
sI1026
g1595
sI1027
g1596
sI1028
g1598
sI1029
g1604
sI1030
g2387
sI1031
g1614
sI1032
g1615
sI1033
g1619
sI1034
g1622
sI1035
g1626
sI1036
g2391
sI1037
g1633
sI1038
g1638
sI1039
g1647
sI1040
g1650
sI1041
g1651
sI1042
g1652
sI1043
g1653
sI1044
g1657
sI1045
g1658
sI1046
g686
sI1047
g1663
sI1048
g1670
sI1049
g1675
sI1050
g2229
sI1051
g1922
sI1052
g1688
sI1053
g2334
sI1054
g1698
sI1055
g1701
sI1056
g1703
sI1057
g1704
sI1058
g1715
sI1059
g1718
sI1060
g2408
sI1061
g1731
sI1062
g1736
sI1063
g2319
sI1064
g1742
sI1065
g1743
sI1066
g1747
sI1067
g1749
sI1068
g1754
sI1069
g1151
sI1070
g1755
sI1071
g1756
sI1072
g1759
sI1073
g1760
sI1074
g1765
sI1075
g1773
sI1076
g1594
sI1077
g712
sI1078
g2421
sI1079
g1799
sI1080
g1800
sI1081
g1803
sI1082
g2423
sI1083
g1812
sI1084
g1814
sI1085
g1818
sI1086
g1835
sI1087
g1837
sI1088
g1838
sI1089
g1610
sI1090
g1845
sI1091
g1848
sI1092
g1851
sI1093
g1866
sI1094
g1875
sI1095
g1878
sI1096
g1880
sI1097
g820
sI1098
g1891
sI1099
g1894
sI1100
g1895
sI1101
g1896
sI1102
g1900
sI1103
g1904
sI1104
g1906
sI1105
g1919
sI1106
g1924
sI1107
g1931
sI1108
g1934
sI1109
g1935
sI1110
g1938
sI1111
g1946
sI1112
g1948
sI1113
g1949
sI1114
g1958
sI1115
g1959
sI1116
g2450
sI1117
g1581
sI1118
g1965
sI1119
g1971
sI1120
g1977
sI1121
g1996
sI1122
g2000
sI1123
g1828
sI1124
g2005
sI1125
g2007
sI1126
g1857
sI1127
g2014
sI1128
g2015
sI1129
g2456
sI1130
g2019
sI1131
g2029
sI1132
g2034
sI1133
g2038
sI1134
g2041
sI1135
g2045
sI1136
g2049
sI1137
g1642
sI1138
g2055
sI1139
g2062
sI1140
g2462
sI1141
g2067
sI1142
g2072
sI1143
g2076
sI1144
g2087
sI1145
g2091
sI1146
g2271
sI1147
g764
sI1148
g2111
sI1149
g2112
sI1150
g2118
sI1151
g2120
sI1152
g2123
sI1153
g2126
sI1154
g2132
sI1155
g2136
sI1156
g2141
sI1157
g2145
sI1158
g2157
sI1159
g2159
sI1160
g1669
sI1161
g877
sI1162
g2177
sI1163
g2178
sI1164
g2181
sI1165
g2193
sI1166
g2194
sI1167
g2195
sI1168
g2196
sI1169
g2197
sI1170
g2200
sI1171
g2203
sI1172
g2205
sI1173
g2210
sI1174
g786
sI1175
g2215
sI1176
g788
sI1177
g2222
sI1178
g2223
sI1179
g791
sI1180
g2233
sI1181
g2235
sI1182
g2238
sI1183
g2241
sI1184
g2245
sI1185
g2246
sI1186
g2251
sI1187
g2264
sI1188
g2265
sI1189
g2269
sI1190
g2272
sI1191
g2275
sI1192
g2277
sI1193
g2278
sI1194
g2292
sI1195
g2291
sI1196
g2295
sI1197
g2300
sI1198
g2302
sI1199
g2303
sI1200
g2304
sI1201
g2306
sI1202
g1081
sI1203
g2313
sI1204
g2328
sI1205
g1230
sI1206
g2333
sI1207
g1691
sI1208
g2339
sI1209
g2340
sI1210
g2346
sI1211
g2349
sI1212
g2353
sI1213
g2354
sI1214
g2355
sI1215
g2359
sI1216
g2362
sI1217
g2365
sI1218
g2370
sI1219
g2380
sI1220
g2381
sI1221
g2382
sI1222
g2383
sI1223
g2386
sI1224
g2396
sI1225
g2407
sI1226
g2409
sI1227
g2410
sI1228
g2415
sI1229
g2416
sI1230
g2417
sI1231
g2426
sI1232
g2427
sI1233
g2433
sI1234
g2439
sI1235
g2444
sI1236
g2451
sI1237
g2452
sI1238
g2461
sI1239
g2463
sI1240
g2464
sI1241
g2465
sI1242
g2473
sI1243
g2478
sI1244
g2482
sI1245
g2485
sI1246
g2486
sI1247
g2487
sI1248
g2488
sI1249
g2489
sI1250
g2496
sI1251
g2501
sI1252
g2502
sI1253
g2505
sI1254
g2510
sI1255
g2519
sI1256
g2520
sI1257
g2529
sI1258
g837
sI1259
g2540
sI1260
g2535
sI1261
g1778
sI1262
g9
sI1263
g11
sI1264
g14
sI1265
g17
sI1266
g20
sI1267
g21
sI1268
g23
sI1269
g34
sI1270
g35
sI1271
g41
sI1272
g1019
sI1273
g46
sI1274
g1737
sI1275
g53
sI1276
g56
sI1277
g57
sI1278
g58
sI1279
g60
sI1280
g62
sI1281
g63
sI1282
g68
sI1283
g69
sI1284
g73
sI1285
g80
sI1286
g87
sI1287
g88
sI1288
g90
sI1289
g92
sI1290
g93
sI1291
g94
sI1292
g568
sI1293
g96
sI1294
g98
sI1295
g104
sI1296
g105
sI1297
g110
sI1298
g111
sI1299
g1033
sI1300
g116
sI1301
g118
sI1302
g120
sI1303
g123
sI1304
g826
sI1305
g1525
sI1306
g1752
sI1307
g152
sI1308
g153
sI1309
g156
sI1310
g161
sI1311
g165
sI1312
g1018
sI1313
g171
sI1314
g174
sI1315
g1196
sI1316
g191
sI1317
g201
sI1318
g205
sI1319
g216
sI1320
g221
sI1321
g225
sI1322
g226
sI1323
g230
sI1324
g231
sI1325
g887
sI1326
g245
sI1327
g250
sI1328
g252
sI1329
g256
sI1330
g892
sI1331
g265
sI1332
g1602
sI1333
g268
sI1334
g1640
sI1335
g271
sI1336
g278
sI1337
g897
sI1338
g282
sI1339
g1767
sI1340
g288
sI1341
g296
sI1342
g297
sI1343
g302
sI1344
g306
sI1345
g311
sI1346
g312
sI1347
g313
sI1348
g314
sI1349
g315
sI1350
g319
sI1351
g320
sI1352
g326
sI1353
g330
sI1354
g333
sI1355
g335
sI1356
g336
sI1357
g2106
sI1358
g341
sI1359
g911
sI1360
g343
sI1361
g346
sI1362
g347
sI1363
g350
sI1364
g353
sI1365
g358
sI1366
g360
sI1367
g361
sI1368
g362
sI1369
g367
sI1370
g371
sI1371
g375
sI1372
g1001
sI1373
g381
sI1374
g921
sI1375
g394
sI1376
g397
sI1377
g398
sI1378
g1515
sI1379
g1791
sI1380
g414
sI1381
g415
sI1382
g419
sI1383
g420
sI1384
g423
sI1385
g427
sI1386
g428
sI1387
g117
sI1388
g431
sI1389
g433
sI1390
g435
sI1391
g439
sI1392
g442
sI1393
g445
sI1394
g446
sI1395
g450
sI1396
g456
sI1397
g458
sI1398
g459
sI1399
g460
sI1400
g461
sI1401
g463
sI1402
g468
sI1403
g325
sI1404
g474
sI1405
g477
sI1406
g478
sI1407
g496
sI1408
g497
sI1409
g502
sI1410
g504
sI1411
g581
sI1412
g944
sI1413
g622
sI1414
g946
sI1415
g526
sI1416
g536
sI1417
g389
sI1418
g541
sI1419
g547
sI1420
g552
sI1421
g555
sI1422
g559
sI1423
g869
sI1424
g577
sI1425
g578
sI1426
g579
sI1427
g998
sI1428
g585
sI1429
g1002
sI1430
g589
sI1431
g590
sI1432
g591
sI1433
g1065
sI1434
g594
sI1435
g1092
sI1436
g601
sI1437
g1128
sI1438
g603
sI1439
g606
sI1440
g609
sI1441
g613
sI1442
g619
sI1443
g621
sI1444
g1271
sI1445
g632
sI1446
g1342
sI1447
g645
sI1448
g651
sI1449
g652
sI1450
g1503
sI1451
g660
sI1452
g665
sI1453
g674
sI1454
g1601
sI1455
g687
sI1456
g692
sI1457
g693
sI1458
g701
sI1459
g702
sI1460
g1720
sI1461
g707
sI1462
g2028
sI1463
g708
sI1464
g710
sI1465
g711
sI1466
g1802
sI1467
g722
sI1468
g729
sI1469
g736
sI1470
g743
sI1471
g744
sI1472
g1842
sI1473
g757
sI1474
g760
sI1475
g762
sI1476
g2104
sI1477
g2105
sI1478
g766
sI1479
g768
sI1480
g769
sI1481
g2174
sI1482
g778
sI1483
g255
sI1484
g787
sI1485
g789
sI1486
g2228
sI1487
g792
sI1488
g793
sI1489
g2253
sI1490
g799
sI1491
g199
sI1492
g805
sI1493
g808
sI1494
g817
sI1495
g1925
sI1496
g989
sI1497
g2454
sI1498
g830
sI1499
g835
sI1500
g2530
sI1501
g2534
sI1502
g849
sI1503
g55
sI1504
g854
sI1505
g101
sI1506
g860
sI1507
g861
sI1508
g867
sI1509
g1744
sI1510
g879
sI1511
g219
sI1512
g243
sI1513
g899
sI1514
g907
sI1515
g1220
sI1516
g919
sI1517
g926
sI1518
g932
sI1519
g937
sI1520
g941
sI1521
g949
sI1522
g950
sI1523
g952
sI1524
g960
sI1525
g962
sI1526
g963
sI1527
g966
sI1528
g967
sI1529
g977
sI1530
g1873
sI1531
g982
sI1532
g985
sI1533
g986
sI1534
g1017
sI1535
g988
sI1536
g2175
sI1537
g1004
sI1538
g1009
sI1539
g987
sI1540
g991
sI1541
g1008
sI1542
g1026
sI1543
g1028
sI1544
g1030
sI1545
g1098
sI1546
g1038
sI1547
g1039
sI1548
g1046
sI1549
g1047
sI1550
g1053
sI1551
g1982
sI1552
g1061
sI1553
g1068
sI1554
g1388
sI1555
g1084
sI1556
g1085
sI1557
g1087
sI1558
g1093
sI1559
g1094
sI1560
g1096
sI1561
g1097
sI1562
g1099
sI1563
g1101
sI1564
g1102
sI1565
g1103
sI1566
g1497
sI1567
g1110
sI1568
g1114
sI1569
g1117
sI1570
g1122
sI1571
g1123
sI1572
g1629
sI1573
g1636
sI1574
g1132
sI1575
g1140
sI1576
g1142
sI1577
g1152
sI1578
g1775
sI1579
g1157
sI1580
g1164
sI1581
g1165
sI1582
g974
sI1583
g1168
sI1584
g1172
sI1585
g1178
sI1586
g1181
sI1587
g1183
sI1588
g1184
sI1589
g1187
sI1590
g2036
sI1591
g1200
sI1592
g1202
sI1593
g1209
sI1594
g1211
sI1595
g2371
sI1596
g1233
sI1597
g1236
sI1598
g1243
sI1599
g1249
sI1600
g1250
sI1601
g2337
sI1602
g2341
sI1603
g212
sI1604
g2399
sI1605
g2419
sI1606
g1270
sI1607
g1275
sI1608
g1276
sI1609
g1279
sI1610
g1286
sI1611
g1287
sI1612
g1289
sI1613
g1294
sI1614
g1295
sI1615
g1297
sI1616
g1301
sI1617
g1311
sI1618
g1319
sI1619
g1321
sI1620
g1327
sI1621
g1331
sI1622
g1335
sI1623
g1341
sI1624
g1346
sI1625
g1347
sI1626
g1351
sI1627
g1353
sI1628
g2322
sI1629
g1361
sI1630
g1362
sI1631
g1364
sI1632
g1368
sI1633
g1373
sI1634
g1378
sI1635
g1379
sI1636
g1112
sI1637
g1383
sI1638
g1387
sI1639
g1928
sI1640
g1400
sI1641
g1408
sI1642
g571
sI1643
g1415
sI1644
g1418
sI1645
g1420
sI1646
g871
sI1647
g1444
sI1648
g1445
sI1649
g925
sI1650
g1453
sI1651
g1455
sI1652
g1463
sI1653
g1472
sI1654
g1474
sI1655
g1478
sI1656
g1121
sI1657
g1484
sI1658
g1493
sI1659
g1494
sI1660
g1495
sI1661
g1498
sI1662
g1500
sI1663
g1504
sI1664
g1508
sI1665
g1510
sI1666
g1336
sI1667
g1107
sI1668
g1517
sI1669
g1519
sI1670
g1521
sI1671
g1523
sI1672
g1534
sI1673
g1540
sI1674
g1547
sI1675
g1556
sI1676
g1557
sI1677
g2232
sI1678
g1567
sI1679
g1568
sI1680
g1576
sI1681
g1579
sI1682
g1590
sI1683
g1591
sI1684
g1592
sI1685
g1597
sI1686
g1600
sI1687
g1606
sI1688
g1834
sI1689
g1611
sI1690
g1627
sI1691
g1628
sI1692
g1630
sI1693
g1632
sI1694
g1637
sI1695
g1639
sI1696
g1648
sI1697
g1659
sI1698
g1661
sI1699
g1673
sI1700
g1681
sI1701
g1690
sI1702
g1692
sI1703
g1693
sI1704
g1694
sI1705
g2401
sI1706
g1700
sI1707
g1702
sI1708
g2429
sI1709
g1708
sI1710
g1712
sI1711
g1714
sI1712
g1143
sI1713
g1987
sI1714
g1723
sI1715
g1730
sI1716
g1740
sI1717
g1748
sI1718
g1758
sI1719
g242
sI1720
g1761
sI1721
g1762
sI1722
g457
sI1723
g1764
sI1724
g1772
sI1725
g1780
sI1726
g1783
sI1727
g1784
sI1728
g404
sI1729
g1790
sI1730
g1792
sI1731
g1793
sI1732
g1794
sI1733
g1796
sI1734
g1798
sI1735
g1806
sI1736
g1807
sI1737
g2002
sI1738
g1815
sI1739
g1817
sI1740
g1821
sI1741
g1822
sI1742
g1825
sI1743
g1827
sI1744
g1829
sI1745
g1830
sI1746
g1229
sI1747
g1833
sI1748
g694
sI1749
g1840
sI1750
g1849
sI1751
g1850
sI1752
g843
sI1753
g1853
sI1754
g901
sI1755
g1861
sI1756
g1863
sI1757
g1865
sI1758
g1869
sI1759
g2020
sI1760
g1049
sI1761
g1882
sI1762
g1883
sI1763
g1884
sI1764
g1095
sI1765
g1897
sI1766
g1208
sI1767
g1221
sI1768
g1909
sI1769
g1911
sI1770
g143
sI1771
g1918
sI1772
g1921
sI1773
g1927
sI1774
g1440
sI1775
g1937
sI1776
g1943
sI1777
g1954
sI1778
g648
sI1779
g1569
sI1780
g1967
sI1781
g1968
sI1782
g1973
sI1783
g1975
sI1784
g1666
sI1785
g1983
sI1786
g1984
sI1787
g1985
sI1788
g1986
sI1789
g1993
sI1790
g2003
sI1791
g2017
sI1792
g2021
sI1793
g2024
sI1794
g196
sI1795
g1952
sI1796
g2039
sI1797
g2056
sI1798
g2088
sI1799
g2061
sI1800
g2064
sI1801
g2125
sI1802
g2069
sI1803
g2074
sI1804
g2077
sI1805
g2078
sI1806
g2081
sI1807
g2085
sI1808
g2086
sI1809
g2093
sI1810
g2094
sI1811
g2098
sI1812
g2099
sI1813
g2108
sI1814
g2114
sI1815
g2115
sI1816
g2116
sI1817
g1210
sI1818
g2134
sI1819
g2525
sI1820
g2138
sI1821
g2140
sI1822
g2143
sI1823
g2147
sI1824
g2151
sI1825
g2152
sI1826
g2154
sI1827
g121
sI1828
g2172
sI1829
g244
sI1830
g2179
sI1831
g290
sI1832
g2204
sI1833
g2206
sI1834
g2211
sI1835
g2214
sI1836
g2219
sI1837
g938
sI1838
g2224
sI1839
g2230
sI1840
g2234
sI1841
g2244
sI1842
g2257
sI1843
g2258
sI1844
g2259
sI1845
g2261
sI1846
g2262
sI1847
g2266
sI1848
g2274
sI1849
g896
sI1850
g2281
sI1851
g2282
sI1852
g2286
sI1853
g958
sI1854
g2290
sI1855
g2294
sI1856
g2308
sI1857
g2311
sI1858
g2097
sI1859
g2315
sI1860
g2318
sI1861
g2321
sI1862
g2323
sI1863
g2326
sI1864
g2327
sI1865
g2330
sI1866
g2332
sI1867
g2336
sI1868
g2100
sI1869
g2338
sI1870
g2342
sI1871
g2343
sI1872
g2345
sI1873
g2350
sI1874
g2363
sI1875
g2367
sI1876
g2373
sI1877
g2377
sI1878
g615
sI1879
g2385
sI1880
g1631
sI1881
g2392
sI1882
g2398
sI1883
g2403
sI1884
g2404
sI1885
g2405
sI1886
g1738
sI1887
g2422
sI1888
g2424
sI1889
g2431
sI1890
g2432
sI1891
g2436
sI1892
g2437
sI1893
g2442
sI1894
g2023
sI1895
g2458
sI1896
g2470
sI1897
g2471
sI1898
g2474
sI1899
g2477
sI1900
g2479
sI1901
g2483
sI1902
g2484
sI1903
g2220
sI1904
g2248
sI1905
g2252
sI1906
g2494
sI1907
g2503
sI1908
g2508
sI1909
g2511
sI1910
g2516
sI1911
g2517
sI1912
g2518
sI1913
g1981
sI1914
g2523
sI1915
g339
sI1916
g2526
sI1917
g2430
sI1918
g2537
sI1919
g2538
sI1920
g3
sI1921
g6
sI1922
g1192
sI1923
g15
sI1924
g16
sI1925
g413
sI1926
g19
sI1927
g27
sI1928
g28
sI1929
g29
sI1930
g2434
sI1931
g31
sI1932
g36
sI1933
g38
sI1934
g43
sI1935
g45
sI1936
g48
sI1937
g49
sI1938
g59
sI1939
g64
sI1940
g65
sI1941
g66
sI1942
g67
sI1943
g72
sI1944
g421
sI1945
g77
sI1946
g83
sI1947
g85
sI1948
g86
sI1949
g89
sI1950
g544
sI1951
g583
sI1952
g1473
sI1953
g109
sI1954
g122
sI1955
g126
sI1956
g1313
sI1957
g129
sI1958
g133
sI1959
g135
sI1960
g138
sI1961
g139
sI1962
g140
sI1963
g145
sI1964
g147
sI1965
g149
sI1966
g154
sI1967
g2360
sI1968
g158
sI1969
g947
sI1970
g166
sI1971
g441
sI1972
g173
sI1973
g175
sI1974
g189
sI1975
g1234
sI1976
g200
sI1977
g209
sI1978
g210
sI1979
g213
sI1980
g215
sI1981
g1548
sI1982
g220
sI1983
g223
sI1984
g1369
sI1985
g234
sI1986
g237
sI1987
g239
sI1988
g2037
sI1989
g1805
sI1990
g2016
sI1991
g254
sI1992
g258
sI1993
g261
sI1994
g262
sI1995
g263
sI1996
g2289
sI1997
g269
sI1998
g281
sI1999
g981
sI2000
g1711
sI2001
g286
sI2002
g289
sI2003
g294
sI2004
g300
sI2005
g301
sI2006
g304
sI2007
g372
sI2008
g1945
sI2009
g1950
sI2010
g2191
sI2011
g1852
sI2012
g2073
sI2013
g338
sI2014
g519
sI2015
g2127
sI2016
g345
sI2017
g355
sI2018
g363
sI2019
g364
sI2020
g366
sI2021
g370
sI2022
g1350
sI2023
g373
sI2024
g382
sI2025
g383
sI2026
g384
sI2027
g385
sI2028
g392
sI2029
g395
sI2030
g396
sI2031
g566
sI2032
g399
sI2033
g400
sI2034
g412
sI2035
g424
sI2036
g1306
sI2037
g434
sI2038
g170
sI2039
g185
sI2040
g451
sI2041
g2207
sI2042
g2208
sI2043
g462
sI2044
g464
sI2045
g308
sI2046
g469
sI2047
g1874
sI2048
g476
sI2049
g1585
sI2050
g629
sI2051
g417
sI2052
g489
sI2053
g490
sI2054
g495
sI2055
g501
sI2056
g503
sI2057
g507
sI2058
g556
sI2059
g523
sI2060
g524
sI2061
g527
sI2062
g672
sI2063
g529
sI2064
g534
sI2065
g538
sI2066
g761
sI2067
g545
sI2068
g558
sI2069
g563
sI2070
g565
sI2071
g573
sI2072
g574
sI2073
g575
sI2074
g580
sI2075
g588
sI2076
g1656
sI2077
g598
sI2078
g1120
sI2079
g604
sI2080
g1150
sI2081
g608
sI2082
g2042
sI2083
g1179
sI2084
g617
sI2085
g628
sI2086
g633
sI2087
g636
sI2088
g643
sI2089
g2324
sI2090
g653
sI2091
g2192
sI2092
g656
sI2093
g657
sI2094
g658
sI2095
g668
sI2096
g1021
sI2097
g675
sI2098
g155
sI2099
g1612
sI2100
g683
sI2101
g688
sI2102
g695
sI2103
g696
sI2104
g1406
sI2105
g532
sI2106
g724
sI2107
g725
sI2108
g732
sI2109
g859
sI2110
g1999
sI2111
g747
sI2112
g749
sI2113
g759
sI2114
g767
sI2115
g1329
sI2116
g773
sI2117
g774
sI2118
g775
sI2119
g634
sI2120
g782
sI2121
g803
sI2122
g1262
sI2123
g809
sI2124
g810
sI2125
g813
sI2126
g2378
sI2127
g825
sI2128
g2472
sI2129
g834
sI2130
g841
sI2131
g842
sI2132
g2267
sI2133
g39
sI2134
g848
sI2135
g855
sI2136
g862
sI2137
g863
sI2138
g864
sI2139
g865
sI2140
g866
sI2141
g868
sI2142
g2273
sI2143
g875
sI2144
g876
sI2145
g1588
sI2146
g890
sI2147
g891
sI2148
g1854
sI2149
g894
sI2150
g898
sI2151
g900
sI2152
g905
sI2153
g910
sI2154
g916
sI2155
g2279
sI2156
g1446
sI2157
g929
sI2158
g618
sI2159
g5
sI2160
g933
sI2161
g510
sI2162
g942
sI2163
g943
sI2164
g948
sI2165
g582
sI2166
g726
sI2167
g983
sI2168
g992
sI2169
g994
sI2170
g917
sI2171
g922
sI2172
g955
sI2173
g1933
sI2174
g1025
sI2175
g1027
sI2176
g1041
sI2177
g1042
sI2178
g1044
sI2179
g1045
sI2180
g1048
sI2181
g1188
sI2182
g1546
sI2183
g1059
sI2184
g1060
sI2185
g1063
sI2186
g1324
sI2187
g1074
sI2188
g1357
sI2189
g1079
sI2190
g1396
sI2191
g1086
sI2192
g1088
sI2193
g25
sI2194
g1458
sI2195
g1100
sI2196
g1105
sI2197
g1514
sI2198
g1108
sI2199
g1526
sI2200
g1539
sI2201
g1015
sI2202
g1804
sI2203
g1644
sI2204
g1135
sI2205
g1136
sI2206
g1144
sI2207
g1160
sI2208
g1161
sI2209
g1163
sI2210
g1170
sI2211
g1241
sI2212
g1175
sI2213
g2022
sI2214
g999
sI2215
g1193
sI2216
g1413
sI2217
g1197
sI2218
g1199
sI2219
g1201
sI2220
g1204
sI2221
g1206
sI2222
g1219
sI2223
g1227
sI2224
g1824
sI2225
g1245
sI2226
g1248
sI2227
g1261
sI2228
g1263
sI2229
g1266
sI2230
g2095
sI2231
g2420
sI2232
g1272
sI2233
g2507
sI2234
g2533
sI2235
g2314
sI2236
g2509
sI2237
g1298
sI2238
g1299
sI2239
g1303
sI2240
g1305
sI2241
g1312
sI2242
g128
sI2243
g1914
sI2244
g1315
sI2245
g1317
sI2246
g160
sI2247
g168
sI2248
g207
sI2249
g1332
sI2250
g1337
sI2251
g1339
sI2252
g1343
sI2253
g1345
sI2254
g1349
sI2255
g1355
sI2256
g1356
sI2257
g436
sI2258
g470
sI2259
g827
sI2260
g1391
sI2261
g1393
sI2262
g1395
sI2263
g1397
sI2264
g1399
sI2265
g1401
sI2266
g1402
sI2267
g1404
sI2268
g1405
sI2269
g1410
sI2270
g1411
sI2271
g754
sI2272
g1425
sI2273
g84
sI2274
g1427
sI2275
g815
sI2276
g1429
sI2277
g1436
sI2278
g727
sI2279
g1443
sI2280
g1449
sI2281
g1451
sI2282
g1457
sI2283
g1467
sI2284
g1470
sI2285
g1471
sI2286
g1475
sI2287
g1483
sI2288
g1488
sI2289
g1496
sI2290
g1507
sI2291
g1524
sI2292
g1115
sI2293
g1529
sI2294
g1530
sI2295
g1535
sI2296
g1536
sI2297
g1537
sI2298
g1538
sI2299
g1542
sI2300
g1543
sI2301
g1549
sI2302
g1553
sI2303
g2435
sI2304
g416
sI2305
g2376
sI2306
g1560
sI2307
g1561
sI2308
g1566
sI2309
g1571
sI2310
g1182
sI2311
g1578
sI2312
g1686
sI2313
g1696
sI2314
g1583
sI2315
g1605
sI2316
g1608
sI2317
g1609
sI2318
g1613
sI2319
g1877
sI2320
g1617
sI2321
g1913
sI2322
g1623
sI2323
g1920
sI2324
g2394
sI2325
g2185
sI2326
g1641
sI2327
g2050
sI2328
g1655
sI2329
g1662
sI2330
g1667
sI2331
g2169
sI2332
g1672
sI2333
g2199
sI2334
g1676
sI2335
g1677
sI2336
g1682
sI2337
g1684
sI2338
g1685
sI2339
g2297
sI2340
g1687
sI2341
g1697
sI2342
g1705
sI2343
g1706
sI2344
g699
sI2345
g1709
sI2346
g1713
sI2347
g2514
sI2348
g2515
sI2349
g1727
sI2350
g1729
sI2351
g1732
sI2352
g1733
sI2353
g1734
sI2354
g328
sI2355
g1745
sI2356
g113
sI2357
g115
sI2358
g1757
sI2359
g1169
sI2360
g267
sI2361
g1766
sI2362
g1176
sI2363
g1770
sI2364
g1771
sI2365
g1776
sI2366
g1781
sI2367
g1785
sI2368
g1795
sI2369
g1618
sI2370
g2218
sI2371
g1810
sI2372
g1689
sI2373
g1820
sI2374
g1836
sI2375
g1137
sI2376
g1843
sI2377
g1844
sI2378
g1078
sI2379
g852
sI2380
g1856
sI2381
g1215
sI2382
g1864
sI2383
g954
sI2384
g968
sI2385
g1881
sI2386
g1885
sI2387
g1887
sI2388
g1888
sI2389
g1889
sI2390
g1890
sI2391
g1893
sI2392
g1898
sI2393
g1195
sI2394
g1901
sI2395
g1903
sI2396
g1916
sI2397
g1930
sI2398
g1939
sI2399
g1941
sI2400
g1942
sI2401
g1956
sI2402
g1957
sI2403
g1960
sI2404
g391
sI2405
g1969
sI2406
g1645
sI2407
g1980
sI2408
g1989
sI2409
g1990
sI2410
g1991
sI2411
g1992
sI2412
g1997
sI2413
g1998
sI2414
g1786
sI2415
g2001
sI2416
g1813
sI2417
g748
sI2418
g2008
sI2419
g2009
sI2420
g2011
sI2421
g2013
sI2422
g1782
sI2423
g2026
sI2424
g1185
sI2425
g2459
sI2426
g2288
sI2427
g2048
sI2428
g2040
sI2429
g2053
sI2430
g2057
sI2431
g2058
sI2432
g934
sI2433
g2063
sI2434
g2066
sI2435
g2131
sI2436
g2148
sI2437
g2079
sI2438
g2201
sI2439
g2083
sI2440
g2084
sI2441
g2090
sI2442
g176
sI2443
g763
sI2444
g2312
sI2445
g2101
sI2446
g2102
sI2447
g2103
sI2448
g612
sI2449
g2137
sI2450
g2139
sI2451
g2142
sI2452
g2146
sI2453
g1664
sI2454
g2160
sI2455
g2164
sI2456
g2171
sI2457
g2163
sI2458
g2176
sI2459
g2182
sI2460
g2187
sI2461
g2188
sI2462
g2189
sI2463
g2190
sI2464
g1947
sI2465
g2202
sI2466
g2212
sI2467
g2217
sI2468
g440
sI2469
g2531
sI2470
g2226
sI2471
g2237
sI2472
g2158
sI2473
g845
sI2474
g2256
sI2475
g2263
sI2476
g2268
sI2477
g2293
sI2478
g996
sI2479
g2298
sI2480
g2299
sI2481
g2500
sI2482
g403
sI2483
g2317
sI2484
g2320
sI2485
g2325
sI2486
g2335
sI2487
g2512
sI2488
g2347
sI2489
g1460
sI2490
g2361
sI2491
g2366
sI2492
g2368
sI2493
g2384
sI2494
g2389
sI2495
g2390
sI2496
g2393
sI2497
g1634
sI2498
g2395
sI2499
g2397
sI2500
g2402
sI2501
g2524
sI2502
g386
sI2503
g2411
sI2504
g167
sI2505
g972
sI2506
g680
sI2507
g2440
sI2508
g2441
sI2509
g2443
sI2510
g2445
sI2511
g1695
sI2512
g2447
sI2513
g2453
sI2514
g2455
sI2515
g22
sI2516
g2033
sI2517
g2460
sI2518
g2060
sI2519
g349
sI2520
g2467
sI2521
g2469
sI2522
g2121
sI2523
g1062
sI2524
g2476
sI2525
g2149
sI2526
g2536
sI2527
g2260
sI2528
g1528
sI2529
g909
sI2530
g1826
sI2531
g2513
sI2532
g233
sI2533
g2521
sI2534
g2522
sI2535
g2406
sI2536
g2412
sI2537
g2532
ssS'update'
p2544
(lp2545
S'We'
p2546
aS'be'
p2547
aS'Ws'
p2548
aS'WLSTM'
p2549
aS'Wd'
p2550
aS'bd'
p2551
asS'regularize'
p2552
(lp2553
g2546
ag2548
ag2549
ag2550
as.