(dp0
S'grad_clip'
p1
I5
sS'rnn_relu_encoders'
p2
I0
sS'dataset'
p3
S'flickr8k'
p4
sS'image_encoding_size'
p5
I256
sS'eval_max_images'
p6
I-1
sS'drop_prob_decoder'
p7
F0.5
sS'word_encoding_size'
p8
I256
sS'max_epochs'
p9
I50
sS'eval_batch_size'
p10
I100
sS'fappend'
p11
S'baseline'
p12
sS'generator'
p13
S'lstm'
p14
sS'min_ppl_or_abort'
p15
I-1
sS'tanhC_version'
p16
I0
sS'write_checkpoint_ppl_threshold'
p17
I-1
sS'decay_rate'
p18
F0.999
sS'rnn_feed_once'
p19
I0
sS'hidden_size'
p20
I256
sS'momentum'
p21
F0.0
sS'worker_status_output_directory'
p22
S'status/'
p23
sS'init_model_from'
p24
S''
p25
sS'learning_rate'
p26
F0.001
sS'checkpoint_output_directory'
p27
S'cv/'
p28
sS'do_grad_check'
p29
I0
sS'word_count_threshold'
p30
I5
sS'batch_size'
p31
I100
sS'regc'
p32
F1e-08
sS'smooth_eps'
p33
F1e-08
sS'solver'
p34
S'rmsprop'
p35
sS'eval_period'
p36
F1.0
sS'drop_prob_encoder'
p37
F0.5
s.